Microchip Technology Inc, v2.10 (B)

Tool Name:
  /Applications/microchip/xc16/v2.10/bin/bin/../bin/elf-ld

Command:
  -p24FJ128GL306 \
  --mdfp=/Applications/microchip/mplabx/v6.25/packs/Microchip/PIC24F-GL-GU_DFP/1.6.243/xc16 \
  -o \
  dist/default/production/ScentCollCharsCopy.X.production.elf \
  -L/Applications/microchip/xc16/v2.10/bin/bin/.. \
  -L/Applications/microchip/mplabx/v6.25/packs/Microchip/PIC24F-GL-GU_DFP/1.6.243/xc16/bin/../support/PIC24F/gld \
  -L/Applications/microchip/xc16/v2.10/bin/bin/../../lib \
  -L/Applications/microchip/xc16/v2.10/bin/bin/../../support/PIC24E/gld \
  -L/Applications/microchip/xc16/v2.10/bin/bin/../../support/PIC24F/gld \
  -L/Applications/microchip/xc16/v2.10/bin/bin/../../support/PIC24H/gld \
  -L/Applications/microchip/xc16/v2.10/bin/bin/../../support/dsPIC30F/gld \
  -L/Applications/microchip/xc16/v2.10/bin/bin/../../support/dsPIC33C/gld \
  -L/Applications/microchip/xc16/v2.10/bin/bin/../../support/dsPIC33E/gld \
  -L/Applications/microchip/xc16/v2.10/bin/bin/../../support/dsPIC33F/gld \
  build/default/production/PWM.o \
  build/default/production/bluetooth.o \
  build/default/production/main.o \
  build/default/production/owire.o \
  build/default/production/adc.o \
  build/default/production/piezos.o \
  build/default/production/eeprom.o \
  build/default/production/eeprom_async.o \
  build/default/production/i2c.o \
  build/default/production/i2c_async.o \
  build/default/production/pod.o \
  build/default/production/pod_manager.o \
  build/default/production/pod_manager_async.o \
  build/default/production/relay_pwm_manager.o \
  --local-stack \
  --defsym=__MPLAB_BUILD=1 \
  -Tp24FJ128GL306.gld.00 \
  --stack=16 \
  --check-sections \
  --data-init \
  --pack-data \
  --handles \
  --isr \
  --no-gc-sections \
  --fill-upper=0 \
  --stackguard=16 \
  --no-force-link \
  --smart-io \
  -Map=dist/default/production/ScentCollCharsCopy.X.production.map \
  --report-mem \
  --memorysummary \
  dist/default/production/memoryfile.xml \
  -start-group \
  --library=c99-pic30-elf \
  --library=m-elf \
  --library=c99-elf \
  -end-group \


Optional library libpPIC24Fxxx.a not found
Archive member included because of file (symbol)

/Applications/microchip/xc16/v2.10/bin/bin/../../lib/libc99-pic30-elf.a(crt0_extended24.o)
                              (__resetPRI)
/Applications/microchip/xc16/v2.10/bin/bin/../../lib/libc99-pic30-elf.a(data_init_24.o)
                              /Applications/microchip/xc16/v2.10/bin/bin/../../lib/libc99-pic30-elf.a(crt0_extended24.o) (__data_init_da)
/Applications/microchip/xc16/v2.10/bin/bin/../../lib/libc99-pic30-elf.a(crt_start_mode_normalda.Meo)
                              (__crt_start_mode_normal)
/Applications/microchip/xc16/v2.10/bin/bin/../../lib/libc99-pic30-elf.a(delay32da.Meo)
                              build/default/production/main.o (___delay32)
/Applications/microchip/xc16/v2.10/bin/bin/../../lib/libc99-pic30-elf.a(feqltle.DA_o)
                              build/default/production/main.o (___ltsf2)
/Applications/microchip/xc16/v2.10/bin/bin/../../lib/libc99-pic30-elf.a(fgtge.DA_o)
                              build/default/production/main.o (___gtsf2)
/Applications/microchip/xc16/v2.10/bin/bin/../../lib/libc99-pic30-elf.a(fixsfsi.DA_o)
                              build/default/production/main.o (_(float, int, long long, short, float, short, int))
/Applications/microchip/xc16/v2.10/bin/bin/../../lib/libc99-pic30-elf.a(fixunssfsi.DA_o)
                              build/default/production/PWM.o (___fixunssfsi)
/Applications/microchip/xc16/v2.10/bin/bin/../../lib/libc99-pic30-elf.a(floatsisf.DA_o)
                              build/default/production/PWM.o (___floatsisf)
/Applications/microchip/xc16/v2.10/bin/bin/../../lib/libc99-pic30-elf.a(floatunsisf.DA_o)
                              build/default/production/adc.o (___floatunsisf)
/Applications/microchip/xc16/v2.10/bin/bin/../../lib/libc99-pic30-elf.a(funpack.DA_o)
                              /Applications/microchip/xc16/v2.10/bin/bin/../../lib/libc99-pic30-elf.a(fixsfsi.DA_o) (__funpack)
/Applications/microchip/xc16/v2.10/bin/bin/../../lib/libc99-pic30-elf.a(udivsi3.DA_o)
                              build/default/production/piezos.o (___udivsi3)
/Applications/microchip/xc16/v2.10/bin/bin/../../lib/libc99-pic30-elf.a(addsf3x.DA_o)
                              build/default/production/main.o (___subsf3)
/Applications/microchip/xc16/v2.10/bin/bin/../../lib/libc99-pic30-elf.a(divsf3x.DA_o)
                              build/default/production/main.o (___divsf3)
/Applications/microchip/xc16/v2.10/bin/bin/../../lib/libc99-pic30-elf.a(mulsf3x.DA_o)
                              build/default/production/PWM.o (___mulsf3)
/Applications/microchip/xc16/v2.10/bin/bin/../../lib/libc99-pic30-elf.a(dnrmpackfx.DA_o)
                              /Applications/microchip/xc16/v2.10/bin/bin/../../lib/libc99-pic30-elf.a(addsf3x.DA_o) (__dnrmpackf)
/Applications/microchip/xc16/v2.10/bin/bin/../../lib/libc99-pic30-elf.a(unpackdnrmfx.DA_o)
                              /Applications/microchip/xc16/v2.10/bin/bin/../../lib/libc99-pic30-elf.a(mulsf3x.DA_o) (__unpackdnrmf)
/Applications/microchip/xc16/v2.10/bin/bin/../../lib/libc99-pic30-elf.a(typefx.DA_o)
                              /Applications/microchip/xc16/v2.10/bin/bin/../../lib/libc99-pic30-elf.a(addsf3x.DA_o) (__typef)
/Applications/microchip/xc16/v2.10/bin/bin/../../lib/libc99-pic30-elf.a(propnanfx.DA_o)
                              /Applications/microchip/xc16/v2.10/bin/bin/../../lib/libc99-pic30-elf.a(addsf3x.DA_o) (__propnanf)
/Applications/microchip/xc16/v2.10/bin/bin/../../lib/libc99-pic30-elf.a(spackfx.DA_o)
                              /Applications/microchip/xc16/v2.10/bin/bin/../../lib/libc99-pic30-elf.a(divsf3x.DA_o) (__spackf)
/Applications/microchip/xc16/v2.10/bin/bin/../../lib/libc99-pic30-elf.a(unpackfx.DA_o)
                              /Applications/microchip/xc16/v2.10/bin/bin/../../lib/libc99-pic30-elf.a(divsf3x.DA_o) (__unpackf)
/Applications/microchip/xc16/v2.10/bin/bin/../../lib/libc99-pic30-elf.a(divmoddi3.DA_o)
                              build/default/production/piezos.o (___udivdi3)
/Applications/microchip/xc16/v2.10/bin/bin/../../lib/libc99-pic30-elf.a(muldi3.DA_o)
                              build/default/production/piezos.o (___muldi3)
/Applications/microchip/xc16/v2.10/bin/bin/../../lib/libc99-pic30-elf.a(errno.DA_o)
                              /Applications/microchip/xc16/v2.10/bin/bin/../../lib/libc99-pic30-elf.a(divsf3x.DA_o) (_errno)
/Applications/microchip/xc16/v2.10/bin/bin/../../lib/libc99-pic30-elf.a(fcompare.DA_o)
                              /Applications/microchip/xc16/v2.10/bin/bin/../../lib/libc99-pic30-elf.a(feqltle.DA_o) (__fcompare)
/Applications/microchip/xc16/v2.10/bin/bin/../../lib/libc99-pic30-elf.a(floatdisf.DA_o)
                              /Applications/microchip/xc16/v2.10/bin/bin/../../lib/libc99-pic30-elf.a(floatsisf.DA_o) (___floatdisf)
/Applications/microchip/xc16/v2.10/bin/bin/../../lib/libc99-pic30-elf.a(floatundisf.DA_o)
                              /Applications/microchip/xc16/v2.10/bin/bin/../../lib/libc99-pic30-elf.a(floatunsisf.DA_o) (___floatundisf)
/Applications/microchip/xc16/v2.10/bin/bin/../../lib/libc99-pic30-elf.a(fpack.DA_o)
                              /Applications/microchip/xc16/v2.10/bin/bin/../../lib/libc99-pic30-elf.a(floatundisf.DA_o) (__fpack)
/Applications/microchip/xc16/v2.10/bin/bin/../../lib/libc99-pic30-elf.a(funpack2.DA_o)
                              /Applications/microchip/xc16/v2.10/bin/bin/../../lib/libc99-pic30-elf.a(fcompare.DA_o) (__funpack2)
/Applications/microchip/xc16/v2.10/bin/bin/../../lib/libc99-pic30-elf.a(umuldi3.DA_o)
                              /Applications/microchip/xc16/v2.10/bin/bin/../../lib/libc99-pic30-elf.a(muldi3.DA_o) (___umuldi3)
/Applications/microchip/xc16/v2.10/bin/bin/../../lib/libc99-elf.a(__sio_sprintf_dfosux.DA_o)
                              build/default/production/bluetooth.o (__sprintf_cdfFnopsuxX)
/Applications/microchip/xc16/v2.10/bin/bin/../../lib/libc99-elf.a(__sio_sprintf_dosux.DA_o)
                              build/default/production/bluetooth.o (__sprintf_cdnopsuxX)
/Applications/microchip/xc16/v2.10/bin/bin/../../lib/libc99-elf.a(__sio_sprintf_s.DA_o)
                              build/default/production/bluetooth.o (__sprintf_s)
/Applications/microchip/xc16/v2.10/bin/bin/../../lib/libc99-elf.a(memcmp.DA_o)
                              build/default/production/bluetooth.o (_memcmp)
/Applications/microchip/xc16/v2.10/bin/bin/../../lib/libc99-elf.a(memcpy.DA_o)
                              build/default/production/bluetooth.o (_memcpy)
/Applications/microchip/xc16/v2.10/bin/bin/../../lib/libc99-elf.a(memset.DA_o)
                              build/default/production/bluetooth.o (_memset)
/Applications/microchip/xc16/v2.10/bin/bin/../../lib/libc99-elf.a(strtol.DA_o)
                              build/default/production/bluetooth.o (_strtoul)
/Applications/microchip/xc16/v2.10/bin/bin/../../lib/libc99-elf.a(__fmt_d.DA_o)
                              /Applications/microchip/xc16/v2.10/bin/bin/../../lib/libc99-elf.a(__sio_sprintf_dfosux.DA_o) (___fmt_d_needed)
/Applications/microchip/xc16/v2.10/bin/bin/../../lib/libc99-elf.a(__fmt_fp.DA_o)
                              /Applications/microchip/xc16/v2.10/bin/bin/../../lib/libc99-elf.a(__sio_sprintf_dfosux.DA_o) (___fmt_f_needed)
/Applications/microchip/xc16/v2.10/bin/bin/../../lib/libc99-elf.a(__fmt_o.DA_o)
                              /Applications/microchip/xc16/v2.10/bin/bin/../../lib/libc99-elf.a(__sio_sprintf_dfosux.DA_o) (___fmt_o_needed)
/Applications/microchip/xc16/v2.10/bin/bin/../../lib/libc99-elf.a(__fmt_s.DA_o)
                              /Applications/microchip/xc16/v2.10/bin/bin/../../lib/libc99-elf.a(__sio_sprintf_dfosux.DA_o) (___fmt_s_needed)
/Applications/microchip/xc16/v2.10/bin/bin/../../lib/libc99-elf.a(__fmt_u.DA_o)
                              /Applications/microchip/xc16/v2.10/bin/bin/../../lib/libc99-elf.a(__fmt_d.DA_o) (___cvt_u)
/Applications/microchip/xc16/v2.10/bin/bin/../../lib/libc99-elf.a(__fmt_x.DA_o)
                              /Applications/microchip/xc16/v2.10/bin/bin/../../lib/libc99-elf.a(__sio_sprintf_dfosux.DA_o) (___fmt_x_needed)
/Applications/microchip/xc16/v2.10/bin/bin/../../lib/libc99-elf.a(__int_vsprintf.DA_o)
                              /Applications/microchip/xc16/v2.10/bin/bin/../../lib/libc99-elf.a(__sio_sprintf_dfosux.DA_o) (___vsprintf)
/Applications/microchip/xc16/v2.10/bin/bin/../../lib/libc99-elf.a(__pop_float.DA_o)
                              /Applications/microchip/xc16/v2.10/bin/bin/../../lib/libc99-elf.a(__sio_sprintf_dfosux.DA_o) (___pop_float_needed)
/Applications/microchip/xc16/v2.10/bin/bin/../../lib/libc99-elf.a(__pop_int.DA_o)
                              /Applications/microchip/xc16/v2.10/bin/bin/../../lib/libc99-elf.a(__sio_sprintf_dfosux.DA_o) (___pop_int_needed)
/Applications/microchip/xc16/v2.10/bin/bin/../../lib/libc99-elf.a(__pop_ptr.DA_o)
                              /Applications/microchip/xc16/v2.10/bin/bin/../../lib/libc99-elf.a(__sio_sprintf_dfosux.DA_o) (___pop_ptr_needed)
/Applications/microchip/xc16/v2.10/bin/bin/../../lib/libc99-elf.a(__printf_core.DA_o)
                              /Applications/microchip/xc16/v2.10/bin/bin/../../lib/libc99-elf.a(__fmt_d.DA_o) (___pad)
/Applications/microchip/xc16/v2.10/bin/bin/../../lib/libc99-elf.a(atoi.DA_o)
                              /Applications/microchip/xc16/v2.10/bin/bin/../../lib/libc99-elf.a(__printf_core.DA_o) (_atoi)
/Applications/microchip/xc16/v2.10/bin/bin/../../lib/libc99-elf.a(intscan.DA_o)
                              /Applications/microchip/xc16/v2.10/bin/bin/../../lib/libc99-elf.a(strtol.DA_o) (___intscan)
/Applications/microchip/xc16/v2.10/bin/bin/../../lib/libc99-elf.a(shgetc.DA_o)
                              /Applications/microchip/xc16/v2.10/bin/bin/../../lib/libc99-elf.a(strtol.DA_o) (___shlim)
/Applications/microchip/xc16/v2.10/bin/bin/../../lib/libc99-elf.a(strcpy.DA_o)
                              /Applications/microchip/xc16/v2.10/bin/bin/../../lib/libc99-elf.a(__fmt_fp.DA_o) (_strcpy)
/Applications/microchip/xc16/v2.10/bin/bin/../../lib/libc99-elf.a(strlen.DA_o)
                              /Applications/microchip/xc16/v2.10/bin/bin/../../lib/libc99-elf.a(__fmt_fp.DA_o) (_strlen)
/Applications/microchip/xc16/v2.10/bin/bin/../../lib/libc99-elf.a(tolower.DA_o)
                              /Applications/microchip/xc16/v2.10/bin/bin/../../lib/libc99-elf.a(__fmt_fp.DA_o) (_tolower)
/Applications/microchip/xc16/v2.10/bin/bin/../../lib/libc99-elf.a(toupper.DA_o)
                              /Applications/microchip/xc16/v2.10/bin/bin/../../lib/libc99-elf.a(__fmt_x.DA_o) (_toupper)
/Applications/microchip/xc16/v2.10/bin/bin/../../lib/libc99-elf.a(__errno_location.DA_o)
                              /Applications/microchip/xc16/v2.10/bin/bin/../../lib/libc99-elf.a(__printf_core.DA_o) (___errno_val)
/Applications/microchip/xc16/v2.10/bin/bin/../../lib/libc99-elf.a(__int_vsnprintf.DA_o)
                              /Applications/microchip/xc16/v2.10/bin/bin/../../lib/libc99-elf.a(__int_vsprintf.DA_o) (___vsnprintf)
/Applications/microchip/xc16/v2.10/bin/bin/../../lib/libc99-elf.a(__uflow.DA_o)
                              /Applications/microchip/xc16/v2.10/bin/bin/../../lib/libc99-elf.a(shgetc.DA_o) (___uflow)
/Applications/microchip/xc16/v2.10/bin/bin/../../lib/libc99-elf.a(stpcpy.DA_o)
                              /Applications/microchip/xc16/v2.10/bin/bin/../../lib/libc99-elf.a(strcpy.DA_o) (___stpcpy)
/Applications/microchip/xc16/v2.10/bin/bin/../../lib/libc99-elf.a(__int_vfprintf.DA_o)
                              /Applications/microchip/xc16/v2.10/bin/bin/../../lib/libc99-elf.a(__int_vsnprintf.DA_o) (___vfprintf)
/Applications/microchip/xc16/v2.10/bin/bin/../../lib/libc99-elf.a(__toread.DA_o)
                              /Applications/microchip/xc16/v2.10/bin/bin/../../lib/libc99-elf.a(__uflow.DA_o) (___toread)
/Applications/microchip/xc16/v2.10/bin/bin/../../lib/libc99-elf.a(__stdio_exit.DA_o)
                              /Applications/microchip/xc16/v2.10/bin/bin/../../lib/libc99-elf.a(__toread.DA_o) (___stdio_exit_needed)
/Applications/microchip/xc16/v2.10/bin/bin/../../lib/libc99-pic30-elf.a(deqltle.DA_o)
                              /Applications/microchip/xc16/v2.10/bin/bin/../../lib/libc99-elf.a(__fmt_fp.DA_o) (___eqdf2)
/Applications/microchip/xc16/v2.10/bin/bin/../../lib/libc99-pic30-elf.a(dgtge.DA_o)
                              /Applications/microchip/xc16/v2.10/bin/bin/../../lib/libc99-elf.a(__fmt_fp.DA_o) (___gedf2)
/Applications/microchip/xc16/v2.10/bin/bin/../../lib/libc99-pic30-elf.a(extendsfdf.DA_o)
                              /Applications/microchip/xc16/v2.10/bin/bin/../../lib/libc99-elf.a(__pop_float.DA_o) (___extendsfdf2)
/Applications/microchip/xc16/v2.10/bin/bin/../../lib/libc99-pic30-elf.a(fixdfsi.DA_o)
                              /Applications/microchip/xc16/v2.10/bin/bin/../../lib/libc99-elf.a(__fmt_fp.DA_o) (_(float, int, long long, double, float, short, int))
/Applications/microchip/xc16/v2.10/bin/bin/../../lib/libc99-pic30-elf.a(mulsi3.DA_o)
                              /Applications/microchip/xc16/v2.10/bin/bin/../../lib/libc99-elf.a(memset.DA_o) (___mulsi3)
/Applications/microchip/xc16/v2.10/bin/bin/../../lib/libc99-pic30-elf.a(dpadd.DA_o)
                              /Applications/microchip/xc16/v2.10/bin/bin/../../lib/libc99-elf.a(__fmt_fp.DA_o) (___adddf3)
/Applications/microchip/xc16/v2.10/bin/bin/../../lib/libc99-pic30-elf.a(dpdiv.DA_o)
                              /Applications/microchip/xc16/v2.10/bin/bin/../../lib/libc99-elf.a(__fmt_fp.DA_o) (___divdf3)
/Applications/microchip/xc16/v2.10/bin/bin/../../lib/libc99-pic30-elf.a(dpmul.DA_o)
                              /Applications/microchip/xc16/v2.10/bin/bin/../../lib/libc99-elf.a(__fmt_fp.DA_o) (___muldf3)
/Applications/microchip/xc16/v2.10/bin/bin/../../lib/libc99-pic30-elf.a(dpsubs.DA_o)
                              /Applications/microchip/xc16/v2.10/bin/bin/../../lib/libc99-pic30-elf.a(dpmul.DA_o) (__dnsrnd)
/Applications/microchip/xc16/v2.10/bin/bin/../../lib/libc99-pic30-elf.a(dcompare.DA_o)
                              /Applications/microchip/xc16/v2.10/bin/bin/../../lib/libc99-pic30-elf.a(deqltle.DA_o) (__dcompare)
/Applications/microchip/xc16/v2.10/bin/bin/../../lib/libc99-pic30-elf.a(dtype.DA_o)
                              /Applications/microchip/xc16/v2.10/bin/bin/../../lib/libc99-pic30-elf.a(dcompare.DA_o) (__dtype)
/Applications/microchip/xc16/v2.10/bin/bin/../../lib/libc99-pic30-elf.a(dunpack.DA_o)
                              /Applications/microchip/xc16/v2.10/bin/bin/../../lib/libc99-pic30-elf.a(fixdfsi.DA_o) (__dunpack)
/Applications/microchip/xc16/v2.10/bin/bin/../../lib/libc99-pic30-elf.a(dunpack2.DA_o)
                              /Applications/microchip/xc16/v2.10/bin/bin/../../lib/libc99-pic30-elf.a(fixdfsi.DA_o) (__dunpack2exit)
/Applications/microchip/xc16/v2.10/bin/bin/../../lib/libc99-pic30-elf.a(dpropagateNaN.DA_o)
                              /Applications/microchip/xc16/v2.10/bin/bin/../../lib/libc99-pic30-elf.a(dunpack2.DA_o) (__dPropagateNaN)
/Applications/microchip/xc16/v2.10/bin/bin/../../lib/libm-elf.a(floorl.DA_o)
                              /Applications/microchip/xc16/v2.10/bin/bin/../../lib/libc99-elf.a(__fmt_fp.DA_o) (_floorl)


xc16-ld 2.10 (B)

Default Code Model: Small
Default Data Model: Large
Default Scalar Model: Small

"program" Memory  [Origin = 0x100, Length = 0x15e00]

section                    address   length (PC units)   length (bytes) (dec)
-------                    -------   -----------------   --------------------
.text                        0x100              0x30c2          0x4923  (18723)
.const                      0x31c2               0x174           0x22e  (558)
.text                       0x3336              0x2d9a          0x4467  (17511)
.dinit                      0x60d0               0x222           0x333  (819)
.text                       0x62f2               0x7ba           0xb97  (2967)
.init.delay32               0x6aac                0x1c            0x2a  (42)

                 Total "program" memory used (bytes):         0x9eac  (40620) 30%


"data" Memory  [Origin = 0x800, Length = 0x2000]

section                    address      alignment gaps    total length  (dec)
-------                    -------      --------------    -------------------
.nbss                        0x800                   0            0x3a  (58)
.ndata                       0x83a                   0             0x6  (6)
.nbss                        0x840                   0             0xc  (12)
.ndata                       0x84c                   0             0x4  (4)
.nbss                        0x850                   0             0xc  (12)
.ndata                       0x85c                   0             0x2  (2)
.nbss                        0x85e                   0             0x2  (2)
.bss                         0x860                   0           0x3a2  (930)
.data                        0xc02                   0           0x216  (534)
.bss                         0xe18                   0            0x50  (80)
.data                        0xe68                   0            0x2e  (46)
.bss                         0xe96                   0             0xe  (14)

                 Total "data" memory used (bytes):          0x6a4  (1700) 20%


Dynamic Memory Usage

region                     address                      maximum length  (dec)
------                     -------                      ---------------------
heap                             0                                   0  (0)
stack                        0xea4                              0x195c  (6492)

                 Maximum dynamic memory (bytes):         0x195c  (6492)

Info: Project is using a large data memory model when small data memory model is sufficient.


External Symbols in Data Memory (by address):

                    0x0800                  _c_volts
                    0x0804                  _c_volts_comp
                    0x0808                  _t_volts
                    0x080c                  _t_volts_comp
                    0x0810                  _b_volts
                    0x0814                  _b_volts_comp
                    0x0818                  _last_discrepancy
                    0x081a                  _last_fam_discrepancy
                    0x081c                  _last_dev_flag
                    0x081e                  _crc8
                    0x0824                  _mode
                    0x0826                  _pod_index
                    0x0828                  _pod_data_type
                    0x082a                  _led
                    0x082c                  _charge_mV
                    0x082e                  _battery_mV
                    0x0830                  _trans_mV
                    0x0832                  _button_state
                    0x0833                  _down_pressed
                    0x0834                  _up_pressed
                    0x0836                  _global_intensity
                    0x0838                  _int3_state
                    0x0839                  _read_count
                    0x083a                  _freq
                    0x083c                  _global_multi
                    0x0840                  _fifo_items_right
                    0x0842                  _fifo_items_left
                    0x0844                  _piezo_interrupt
                    0x084c                  _intensity_multi
                    0x0854                  _freq_override
                    0x0856                  _error_counter
                    0x0857                  _testVar
                    0x0a7a                  _store
                    0x0a9a                  _messageStore
                    0x0ab2                  _rom_no
                    0x0aba                  _pod_store
                    0x0b1e                  _all_roms
                    0x0d02                  _dummy_ids
                    0x0e18                  _piezo_fifo_right
                    0x0e40                  _piezo_fifo_left
                    0x0ea0                  ___errno_val

External Symbols in Data Memory (by name):

                    0x0ea0                  ___errno_val
                    0x0b1e                  _all_roms
                    0x0810                  _b_volts
                    0x0814                  _b_volts_comp
                    0x082e                  _battery_mV
                    0x0832                  _button_state
                    0x0800                  _c_volts
                    0x0804                  _c_volts_comp
                    0x082c                  _charge_mV
                    0x081e                  _crc8
                    0x0833                  _down_pressed
                    0x0d02                  _dummy_ids
                    0x0856                  _error_counter
                    0x0842                  _fifo_items_left
                    0x0840                  _fifo_items_right
                    0x083a                  _freq
                    0x0854                  _freq_override
                    0x0836                  _global_intensity
                    0x083c                  _global_multi
                    0x0838                  _int3_state
                    0x084c                  _intensity_multi
                    0x081c                  _last_dev_flag
                    0x0818                  _last_discrepancy
                    0x081a                  _last_fam_discrepancy
                    0x082a                  _led
                    0x0a9a                  _messageStore
                    0x0824                  _mode
                    0x0e40                  _piezo_fifo_left
                    0x0e18                  _piezo_fifo_right
                    0x0844                  _piezo_interrupt
                    0x0828                  _pod_data_type
                    0x0826                  _pod_index
                    0x0aba                  _pod_store
                    0x0839                  _read_count
                    0x0ab2                  _rom_no
                    0x0a7a                  _store
                    0x0808                  _t_volts
                    0x080c                  _t_volts_comp
                    0x0857                  _testVar
                    0x0830                  _trans_mV
                    0x0834                  _up_pressed

External Symbols in Program Memory (by address):

                  0x000100                  __resetPRI
                  0x00013c                  __psv_init
                  0x000152                  __data_init
                  0x000152                  __data_init_da
                  0x00020c                  __U1RXInterrupt
                  0x000240                  __IOCInterrupt
                  0x0002c2                  __T1Interrupt
                  0x0002e8                  __INT1Interrupt
                  0x00032e                  __INT2Interrupt
                  0x000374                  __INT3Interrupt
                  0x0003a4                  __T4Interrupt
                  0x000428                  __MI2C1Interrupt
                  0x0006fa                  __T3Interrupt
                  0x00078c                  __DefaultInterrupt
                  0x000792                  ___eqsf2
                  0x000792                  ___lesf2
                  0x000792                  ___ltsf2
                  0x000796                  ___gesf2
                  0x000796                  ___gtsf2
                  0x00079a                  ___fixsfsi
                  0x0007dc                  ___fixunssfsi
                  0x000812                  ___floatsisf
                  0x000818                  ___floatunsisf
                  0x00081c                  __funpack
                  0x000846                  ___udivsi3
                  0x000866                  ___subsf3
                  0x000866                  ___subsf3x
                  0x000878                  ___addsf3x
                  0x000878                  ___addsf3
                  0x000a42                  ___divsf3
                  0x000a42                  ___divsf3x
                  0x000bd4                  __sdivf
                  0x000c00                  ___mulsf3x
                  0x000c00                  ___mulsf3
                  0x000d0c                  __dnrmpackf
                  0x000d60                  __unpackdnrmf
                  0x000dbe                  __typef
                  0x000df2                  __propnanf
                  0x000e04                  __spackf
                  0x000eaa                  __unpackf
                  0x000f5c                  ___udivmoddi3
                  0x001042                  ___udivdi3
                  0x001050                  ___umoddi3
                  0x001058                  ___divdi3
                  0x0010b8                  ___moddi3
                  0x001114                  ___muldi3
                  0x001166                  __fcompare
                  0x00119c                  ___floatdisf
                  0x0011bc                  ___floatundisf
                  0x00121a                  __fpack
                  0x001266                  __funpack2
                  0x001276                  ___umuldi3
                  0x0012c6                  ___sio_sprintf_dfosux
                  0x0012e4                  ___sio_sprintf_dosux
                  0x0012fe                  ___sio_sprintf_s
                  0x001300                  _memcmp
                  0x00131c                  _memcpy
                  0x00132a                  _memset
                  0x001444                  _strtoull
                  0x00144c                  _strtoll
                  0x001454                  _strtoul
                  0x00145c                  _strtol
                  0x001464                  _strtoimax
                  0x001466                  _strtoumax
                  0x001468                  ___fmt_d
                  0x00151c                  ___fmt_fp
                  0x001ad2                  ___fmt_o
                  0x001b3c                  ___fmt_s
                  0x001b90                  ___cvt_u
                  0x001c36                  ___fmt_u
                  0x001c88                  ___fmt_x
                  0x001dd2                  ___vsprintf
                  0x001dda                  ___pop_float
                  0x001e18                  ___pop_int
                  0x001ec0                  ___pop_ptr
                  0x001f56                  ___pad
                  0x001fd0                  ___fmt_state
                  0x0022d4                  ___printf_core
                  0x002328                  _atoi
                  0x002388                  ___intscan
                  0x0027ba                  ___shlim
                  0x002804                  ___shgetc
                  0x002934                  _strcpy
                  0x002942                  _strlen
                  0x002972                  _tolower
                  0x00297e                  ___tolower_l
                  0x002980                  _toupper
                  0x00298c                  ___toupper_l
                  0x00298e                  ___vsnprintf
                  0x0029d8                  ___uflow
                  0x002a02                  ___stpcpy
                  0x002a42                  ___vfprintf
                  0x002a5e                  ___toread
                  0x002aa6                  ___toread_needs_stdio_exit
                  0x002aac                  ___stdio_exit
                  0x002ac0                  ___eqdf2
                  0x002ac0                  ___ledf2
                  0x002ac0                  ___ltdf2
                  0x002aca                  ___gtdf2
                  0x002aca                  ___gedf2
                  0x002ad4                  ___extendsfdf2
                  0x002b12                  ___fixdfsi
                  0x002b6a                  ___mulp32peds3
                  0x002b6a                  ___mulsi3
                  0x002b6a                  ___mulp32eds3
                  0x002b76                  ___subdf3
                  0x002b82                  ___adddf3
                  0x002c18                  ___divdf3
                  0x002d76                  ___muldf3
                  0x002eaa                  __dxchg
                  0x002eb8                  __drshft
                  0x002f12                  __dupchk
                  0x002f74                  __drndex
                  0x002f7e                  __dnsrnd
                  0x002faa                  __dpakex
                  0x002fb8                  __dcompare
                  0x00300a                  __dtype
                  0x00302e                  __dunpack
                  0x00307c                  __dunpack2
                  0x00309e                  __dreturnNaN
                  0x0030a4                  __dunpack2exit
                  0x0030ae                  __dPropagateNaN
                  0x0030ca                  _floorl
                  0x003336                  _docrc8
                  0x00334c                  _ow_reset
                  0x00337c                  _ow_write_bit
                  0x0033ac                  _ow_read_bit
                  0x0033d6                  _ow_read_byte
                  0x003404                  _ow_write_byte
                  0x003428                  _ow_search_rom
                  0x003432                  _rom_code_to_bits
                  0x003492                  _ow_read_mem
                  0x0034ec                  _ow_write_scratchpad
                  0x003576                  _ow_read_scratchpad
                  0x00361e                  _ow_copy_scratchpad
                  0x003664                  _write_save_eeprom
                  0x0036c4                  _read_eeprom
                  0x0037e0                  _read_pod_eeprom
                  0x0038ec                  _verify_eeprom
                  0x003aaa                  _find_channel_by_pod_code
                  0x003ad8                  _find_by_pod_id
                  0x003b56                  _find_by_scent_id
                  0x003bd4                  _find_by_channel_num
                  0x003c3e                  _set_pod_id
                  0x003c88                  _set_scent_id
                  0x003cd2                  _set_pod_position
                  0x003d1c                  _set_scent_level
                  0x003d62                  _is_present
                  0x003da2                  _pod_added_led
                  0x003da8                  _pod_removed_led
                  0x003dae                  _pod_error_led
                  0x003db4                  _is_present_all_roms
                  0x003de6                  _initial_search
                  0x003e52                  _find_missing
                  0x003ec2                  _add_pod
                  0x003ff8                  _pods_idle
                  0x00400c                  _remove_pod
                  0x00402c                  _locate_pods
                  0x00409c                  _setupBT
                  0x004102                  _enableSerial
                  0x00412c                  _BTTX
                  0x004160                  _sendLEName
                  0x004192                  _sendName
                  0x0041c4                  _enableSSP
                  0x0041f2                  _profileSelect
                  0x004222                  _sendTest
                  0x0042b6                  _sendData
                  0x004304                  _sendButtonState
                  0x004334                  _sendBattLevel
                  0x004362                  _sendPod
                  0x00439c                  _sendScentLevel
                  0x0043d6                  _sendScentIDs
                  0x004410                  _sendScentMsg
                  0x004444                  _sendReboot
                  0x004472                  _sendDSCA
                  0x0044a0                  _sendA2dpDisc
                  0x0044bc                  _sendRestore
                  0x0044d6                  _sendSPPData
                  0x004546                  _sendPodIDsOLD
                  0x0045bc                  _sendScentIDsOLD
                  0x004632                  _sendScentLevelsOLD
                  0x00468e                  _sendPowerStatsOLD
                  0x004718                  _dump_OK
                  0x004776                  _BTRX
                  0x004a52                  _activate_piezo
                  0x004b96                  _fire_piezo_R1
                  0x004c2a                  _fire_piezo_R2
                  0x004cbe                  _fire_piezo_R3
                  0x004d46                  _fire_piezo_L1
                  0x004dda                  _fire_piezo_L2
                  0x004e6e                  _fire_piezo_L3
                  0x004ef6                  _wait_4_piezo
                  0x004f28                  _fire_piezo
                  0x0050a6                  _fire_piezo_two
                  0x005222                  _piezo_handler
                  0x005272                  _adjust_intensity
                  0x0052aa                  _piezo_fifo_init
                  0x0052c0                  _piezo_fifo_right_get
                  0x005314                  _piezo_fifo_right_put
                  0x00533c                  _piezo_fifo_right_items
                  0x005344                  _piezo_fifo_left_get
                  0x005398                  _piezo_fifo_left_put
                  0x0053c0                  _piezo_fifo_left_items
                  0x00543e                  _pps_init
                  0x005474                  _init_pins
                  0x005508                  _Setup_Timer1
                  0x00551e                  _Setup_Timer4
                  0x00553a                  _startUp
                  0x00562a                  _check_poll
                  0x0056f8                  _check_boost_wdelay
                  0x005728                  _main
                  0x005798                  _toggleLed
                  0x0057c8                  _change_global_intensity
                  0x0058e6                  _eeprom_init
                  0x005908                  _eeprom_deinit
                  0x00591c                  _eeprom_write_byte
                  0x00599e                  _eeprom_read_byte
                  0x005a3a                  _eeprom_read_block
                  0x005afc                  _eeprom_write_block
                  0x005c52                  _i2c_init
                  0x005cce                  _i2c_deinit
                  0x005d06                  _i2c_start
                  0x005d36                  _i2c_restart
                  0x005d66                  _i2c_accept
                  0x005d96                  _i2c_stop
                  0x005dc6                  _i2c_write_byte
                  0x005e14                  _i2c_read_byte
                  0x005f22                  _relay_pwm_init
                  0x006082                  _relay_pwm_fire
                  0x0060be                  _relay_pwm_stop
                  0x006368                  _pod_manager_async_init
                  0x0063b8                  _pod_manager_async_poll
                  0x0063f2                  build/default/production/pod_manager_async.o:_pod_read_done
                  0x006476                  _pod_manager_fire
                  0x0064b4                  _calc_pwm_multi
                  0x006508                  _PWM_FREQ
                  0x00655c                  _PWM_Setup
                  0x00659c                  _PWM_PIEZO_R
                  0x0065ea                  _PWM_PIEZO_L
                  0x006690                  _i2c_async_init
                  0x0066d0                  _i2c_async_submit
                  0x0067a8                  _setup_adc
                  0x0067d6                  _calc_adc
                  0x0068f0                  _pod_init
                  0x00691c                  _pod_deinit
                  0x006932                  _pod_detect
                  0x006982                  _pod_load_metadata
                  0x0069d2                  _eeproma_read_block_async
                  0x006a40                  build/default/production/eeprom_async.o:_eeproma_read_cb
                  0x006a8a                  _eeproma_init
                  0x006aac                  ___delay32

External Symbols in Program Memory (by name):

                  0x004776                  _BTRX
                  0x00412c                  _BTTX
                  0x006508                  _PWM_FREQ
                  0x0065ea                  _PWM_PIEZO_L
                  0x00659c                  _PWM_PIEZO_R
                  0x00655c                  _PWM_Setup
                  0x005508                  _Setup_Timer1
                  0x00551e                  _Setup_Timer4
                  0x00078c                  __DefaultInterrupt
                  0x0002e8                  __INT1Interrupt
                  0x00032e                  __INT2Interrupt
                  0x000374                  __INT3Interrupt
                  0x000240                  __IOCInterrupt
                  0x000428                  __MI2C1Interrupt
                  0x0002c2                  __T1Interrupt
                  0x0006fa                  __T3Interrupt
                  0x0003a4                  __T4Interrupt
                  0x00020c                  __U1RXInterrupt
                  0x002b82                  ___adddf3
                  0x000878                  ___addsf3
                  0x000878                  ___addsf3x
                  0x001b90                  ___cvt_u
                  0x006aac                  ___delay32
                  0x002c18                  ___divdf3
                  0x001058                  ___divdi3
                  0x000a42                  ___divsf3
                  0x000a42                  ___divsf3x
                  0x002ac0                  ___eqdf2
                  0x000792                  ___eqsf2
                  0x002ad4                  ___extendsfdf2
                  0x002b12                  ___fixdfsi
                  0x00079a                  ___fixsfsi
                  0x0007dc                  ___fixunssfsi
                  0x00119c                  ___floatdisf
                  0x000812                  ___floatsisf
                  0x0011bc                  ___floatundisf
                  0x000818                  ___floatunsisf
                  0x001468                  ___fmt_d
                  0x00151c                  ___fmt_fp
                  0x001ad2                  ___fmt_o
                  0x001b3c                  ___fmt_s
                  0x001fd0                  ___fmt_state
                  0x001c36                  ___fmt_u
                  0x001c88                  ___fmt_x
                  0x002aca                  ___gedf2
                  0x000796                  ___gesf2
                  0x002aca                  ___gtdf2
                  0x000796                  ___gtsf2
                  0x002388                  ___intscan
                  0x002ac0                  ___ledf2
                  0x000792                  ___lesf2
                  0x002ac0                  ___ltdf2
                  0x000792                  ___ltsf2
                  0x0010b8                  ___moddi3
                  0x002d76                  ___muldf3
                  0x001114                  ___muldi3
                  0x002b6a                  ___mulp32eds3
                  0x002b6a                  ___mulp32peds3
                  0x000c00                  ___mulsf3
                  0x000c00                  ___mulsf3x
                  0x002b6a                  ___mulsi3
                  0x001f56                  ___pad
                  0x001dda                  ___pop_float
                  0x001e18                  ___pop_int
                  0x001ec0                  ___pop_ptr
                  0x0022d4                  ___printf_core
                  0x002804                  ___shgetc
                  0x0027ba                  ___shlim
                  0x0012c6                  ___sio_sprintf_dfosux
                  0x0012e4                  ___sio_sprintf_dosux
                  0x0012fe                  ___sio_sprintf_s
                  0x002aac                  ___stdio_exit
                  0x002a02                  ___stpcpy
                  0x002b76                  ___subdf3
                  0x000866                  ___subsf3
                  0x000866                  ___subsf3x
                  0x00297e                  ___tolower_l
                  0x002a5e                  ___toread
                  0x002aa6                  ___toread_needs_stdio_exit
                  0x00298c                  ___toupper_l
                  0x001042                  ___udivdi3
                  0x000f5c                  ___udivmoddi3
                  0x000846                  ___udivsi3
                  0x0029d8                  ___uflow
                  0x001050                  ___umoddi3
                  0x001276                  ___umuldi3
                  0x002a42                  ___vfprintf
                  0x00298e                  ___vsnprintf
                  0x001dd2                  ___vsprintf
                  0x0030ae                  __dPropagateNaN
                  0x000152                  __data_init
                  0x000152                  __data_init_da
                  0x002fb8                  __dcompare
                  0x000d0c                  __dnrmpackf
                  0x002f7e                  __dnsrnd
                  0x002faa                  __dpakex
                  0x00309e                  __dreturnNaN
                  0x002f74                  __drndex
                  0x002eb8                  __drshft
                  0x00300a                  __dtype
                  0x00302e                  __dunpack
                  0x00307c                  __dunpack2
                  0x0030a4                  __dunpack2exit
                  0x002f12                  __dupchk
                  0x002eaa                  __dxchg
                  0x001166                  __fcompare
                  0x00121a                  __fpack
                  0x00081c                  __funpack
                  0x001266                  __funpack2
                  0x000df2                  __propnanf
                  0x00013c                  __psv_init
                  0x000100                  __resetPRI
                  0x000bd4                  __sdivf
                  0x000e04                  __spackf
                  0x000dbe                  __typef
                  0x000d60                  __unpackdnrmf
                  0x000eaa                  __unpackf
                  0x004a52                  _activate_piezo
                  0x003ec2                  _add_pod
                  0x005272                  _adjust_intensity
                  0x002328                  _atoi
                  0x0067d6                  _calc_adc
                  0x0064b4                  _calc_pwm_multi
                  0x0057c8                  _change_global_intensity
                  0x0056f8                  _check_boost_wdelay
                  0x00562a                  _check_poll
                  0x003336                  _docrc8
                  0x004718                  _dump_OK
                  0x005908                  _eeprom_deinit
                  0x0058e6                  _eeprom_init
                  0x005a3a                  _eeprom_read_block
                  0x00599e                  _eeprom_read_byte
                  0x005afc                  _eeprom_write_block
                  0x00591c                  _eeprom_write_byte
                  0x006a8a                  _eeproma_init
                  0x0069d2                  _eeproma_read_block_async
                  0x0041c4                  _enableSSP
                  0x004102                  _enableSerial
                  0x003bd4                  _find_by_channel_num
                  0x003ad8                  _find_by_pod_id
                  0x003b56                  _find_by_scent_id
                  0x003aaa                  _find_channel_by_pod_code
                  0x003e52                  _find_missing
                  0x004f28                  _fire_piezo
                  0x004d46                  _fire_piezo_L1
                  0x004dda                  _fire_piezo_L2
                  0x004e6e                  _fire_piezo_L3
                  0x004b96                  _fire_piezo_R1
                  0x004c2a                  _fire_piezo_R2
                  0x004cbe                  _fire_piezo_R3
                  0x0050a6                  _fire_piezo_two
                  0x0030ca                  _floorl
                  0x005d66                  _i2c_accept
                  0x006690                  _i2c_async_init
                  0x0066d0                  _i2c_async_submit
                  0x005cce                  _i2c_deinit
                  0x005c52                  _i2c_init
                  0x005e14                  _i2c_read_byte
                  0x005d36                  _i2c_restart
                  0x005d06                  _i2c_start
                  0x005d96                  _i2c_stop
                  0x005dc6                  _i2c_write_byte
                  0x005474                  _init_pins
                  0x003de6                  _initial_search
                  0x003d62                  _is_present
                  0x003db4                  _is_present_all_roms
                  0x00402c                  _locate_pods
                  0x005728                  _main
                  0x001300                  _memcmp
                  0x00131c                  _memcpy
                  0x00132a                  _memset
                  0x00361e                  _ow_copy_scratchpad
                  0x0033ac                  _ow_read_bit
                  0x0033d6                  _ow_read_byte
                  0x003492                  _ow_read_mem
                  0x003576                  _ow_read_scratchpad
                  0x00334c                  _ow_reset
                  0x003428                  _ow_search_rom
                  0x00337c                  _ow_write_bit
                  0x003404                  _ow_write_byte
                  0x0034ec                  _ow_write_scratchpad
                  0x0052aa                  _piezo_fifo_init
                  0x005344                  _piezo_fifo_left_get
                  0x0053c0                  _piezo_fifo_left_items
                  0x005398                  _piezo_fifo_left_put
                  0x0052c0                  _piezo_fifo_right_get
                  0x00533c                  _piezo_fifo_right_items
                  0x005314                  _piezo_fifo_right_put
                  0x005222                  _piezo_handler
                  0x003da2                  _pod_added_led
                  0x00691c                  _pod_deinit
                  0x006932                  _pod_detect
                  0x003dae                  _pod_error_led
                  0x0068f0                  _pod_init
                  0x006982                  _pod_load_metadata
                  0x006368                  _pod_manager_async_init
                  0x0063b8                  _pod_manager_async_poll
                  0x006476                  _pod_manager_fire
                  0x003da8                  _pod_removed_led
                  0x003ff8                  _pods_idle
                  0x00543e                  _pps_init
                  0x0041f2                  _profileSelect
                  0x0036c4                  _read_eeprom
                  0x0037e0                  _read_pod_eeprom
                  0x006082                  _relay_pwm_fire
                  0x005f22                  _relay_pwm_init
                  0x0060be                  _relay_pwm_stop
                  0x00400c                  _remove_pod
                  0x003432                  _rom_code_to_bits
                  0x0044a0                  _sendA2dpDisc
                  0x004334                  _sendBattLevel
                  0x004304                  _sendButtonState
                  0x004472                  _sendDSCA
                  0x0042b6                  _sendData
                  0x004160                  _sendLEName
                  0x004192                  _sendName
                  0x004362                  _sendPod
                  0x004546                  _sendPodIDsOLD
                  0x00468e                  _sendPowerStatsOLD
                  0x004444                  _sendReboot
                  0x0044bc                  _sendRestore
                  0x0044d6                  _sendSPPData
                  0x0043d6                  _sendScentIDs
                  0x0045bc                  _sendScentIDsOLD
                  0x00439c                  _sendScentLevel
                  0x004632                  _sendScentLevelsOLD
                  0x004410                  _sendScentMsg
                  0x004222                  _sendTest
                  0x003c3e                  _set_pod_id
                  0x003cd2                  _set_pod_position
                  0x003c88                  _set_scent_id
                  0x003d1c                  _set_scent_level
                  0x00409c                  _setupBT
                  0x0067a8                  _setup_adc
                  0x00553a                  _startUp
                  0x002934                  _strcpy
                  0x002942                  _strlen
                  0x001464                  _strtoimax
                  0x00145c                  _strtol
                  0x00144c                  _strtoll
                  0x001454                  _strtoul
                  0x001444                  _strtoull
                  0x001466                  _strtoumax
                  0x005798                  _toggleLed
                  0x002972                  _tolower
                  0x002980                  _toupper
                  0x0038ec                  _verify_eeprom
                  0x004ef6                  _wait_4_piezo
                  0x003664                  _write_save_eeprom
                  0x006a40                  build/default/production/eeprom_async.o:_eeproma_read_cb
                  0x0063f2                  build/default/production/pod_manager_async.o:_pod_read_done

Memory Configuration

Name             Origin             Length             Attributes
data             0x000800           0x002000           a !xr
reset            0x000000           0x000004  
ivt              0x000004           0x0000fc  
program          0x000100           0x015e00           xr
FSEC             0x015f00           0x000002  
FBSLIM           0x015f10           0x000002  
FSIGN            0x015f14           0x000002  
FOSCSEL          0x015f18           0x000002  
FOSC             0x015f1c           0x000002  
FWDT             0x015f20           0x000002  
FPOR             0x015f24           0x000002  
FICD             0x015f28           0x000002  
FDMTIVTL         0x015f2c           0x000002  
FDMTIVTH         0x015f30           0x000002  
FDMTCNTL         0x015f34           0x000002  
FDMTCNTH         0x015f38           0x000002  
FMDT             0x015f3c           0x000002  
FDEVOPT1         0x015f40           0x000002  
*default*        0x000000           0xffffffffffffffff  

Linker script and memory map

LOAD build/default/production/PWM.o
LOAD build/default/production/bluetooth.o
LOAD build/default/production/main.o
LOAD build/default/production/owire.o
LOAD build/default/production/adc.o
LOAD build/default/production/piezos.o
LOAD build/default/production/eeprom.o
LOAD build/default/production/eeprom_async.o
LOAD build/default/production/i2c.o
LOAD build/default/production/i2c_async.o
LOAD build/default/production/pod.o
LOAD build/default/production/pod_manager.o
LOAD build/default/production/pod_manager_async.o
LOAD build/default/production/relay_pwm_manager.o
                    0x0001                  __MPLAB_BUILD = 0x1
LOAD pPIC24Fxxx
LOAD /Applications/microchip/xc16/v2.10/bin/bin/../../lib/libfx-elf.a
                    0x801024                  _iwri1 = 0x801024
                    0x801028                  _iwri2 = 0x801028
                    0x15f00                  __FSEC = 0x15f00
                    0x15f10                  __FBSLIM = 0x15f10
                    0x15f14                  __FSIGN = 0x15f14
                    0x15f18                  __FOSCSEL = 0x15f18
                    0x15f1c                  __FOSC = 0x15f1c
                    0x15f20                  __FWDT = 0x15f20
                    0x15f24                  __FPOR = 0x15f24
                    0x15f28                  __FICD = 0x15f28
                    0x15f2c                  __FDMTIVTL = 0x15f2c
                    0x15f30                  __FDMTIVTH = 0x15f30
                    0x15f34                  __FDMTCNTL = 0x15f34
                    0x15f38                  __FDMTCNTH = 0x15f38
                    0x15f3c                  __FMDT = 0x15f3c
                    0x15f40                  __FDEVOPT1 = 0x15f40
                    0x0100                  __CODE_BASE = 0x100
                    0x15e00                  __CODE_LENGTH = 0x15e00
                    0x0004                  __IVT_BASE = 0x4
                    0x0800                  __DATA_BASE = 0x800
                    0x2000                  __DATA_LENGTH = 0x2000

.reset            0x000000          0x4
                  0x000000          0x2 SHORT 0x100 ABSOLUTE (__reset)
                  0x000001          0x2 SHORT 0x4
                  0x000002          0x2 SHORT 0x0 ((ABSOLUTE (__reset) >> 0x10) & 0x7f)
                  0x000003          0x2 SHORT 0x0

.text             0x000100       0x30c2
 *(.init)
 .init            0x000100         0x4c /Applications/microchip/xc16/v2.10/bin/bin/../../lib/libc99-pic30-elf.a(crt0_extended24.o)
                  0x000100                  __reset
                  0x000100                  __resetPRI
                  0x00013c                  __psv_init
 .init            0x00014c         0xb8 /Applications/microchip/xc16/v2.10/bin/bin/../../lib/libc99-pic30-elf.a(data_init_24.o)
                  0x000152                  __data_init_da
                  0x000152                  __data_init
 *(.user_init)
 *(.handle)
 .handle          0x000204          0x8 jump_table
 *(.isr*)
 .isr.text        0x00020c         0x34 build/default/production/bluetooth.o
                  0x00020c                  __U1RXInterrupt
 .isr.text        0x000240        0x1e8 build/default/production/main.o
                  0x000240                  __IOCInterrupt
                  0x0002c2                  __T1Interrupt
                  0x0002e8                  __INT1Interrupt
                  0x00032e                  __INT2Interrupt
                  0x000374                  __INT3Interrupt
                  0x0003a4                  __T4Interrupt
 .isr.text        0x000428        0x2d2 build/default/production/i2c_async.o
                  0x000428                  __MI2C1Interrupt
 .isr.text        0x0006fa         0x92 build/default/production/relay_pwm_manager.o
                  0x0006fa                  __T3Interrupt
 .isr             0x00078c          0x4 default_isr
                  0x00078c                  __DefaultInterrupt
 *(.libc)
 *(.libm)
 *(.libdsp)
 *(.lib*)
 .libpic30_crt_start_mode
                  0x000790          0x2 /Applications/microchip/xc16/v2.10/bin/bin/../../lib/libc99-pic30-elf.a(crt_start_mode_normalda.Meo)
                  0x000790                  __crt_start_mode_normal
                  0x000790                  __crt_start_mode
 .libm.eqsf2      0x000792          0x4 /Applications/microchip/xc16/v2.10/bin/bin/../../lib/libc99-pic30-elf.a(feqltle.DA_o)
                  0x000792                  ___lesf2
                  0x000792                  ___eqsf2
                  0x000792                  ___ltsf2
 .libm.gtsf2      0x000796          0x4 /Applications/microchip/xc16/v2.10/bin/bin/../../lib/libc99-pic30-elf.a(fgtge.DA_o)
                  0x000796                  ___gtsf2
                  0x000796                  ___gesf2
 .libm.fixsfsi    0x00079a         0x42 /Applications/microchip/xc16/v2.10/bin/bin/../../lib/libc99-pic30-elf.a(fixsfsi.DA_o)
                  0x00079a                  _(float, int, long long, short, float, short, int)
 .libm.fixunssfsi
                  0x0007dc         0x36 /Applications/microchip/xc16/v2.10/bin/bin/../../lib/libc99-pic30-elf.a(fixunssfsi.DA_o)
                  0x0007dc                  ___fixunssfsi
 .libm.floatsisf
                  0x000812          0x6 /Applications/microchip/xc16/v2.10/bin/bin/../../lib/libc99-pic30-elf.a(floatsisf.DA_o)
                  0x000812                  ___floatsisf
 .libm.floatunsisf
                  0x000818          0x4 /Applications/microchip/xc16/v2.10/bin/bin/../../lib/libc99-pic30-elf.a(floatunsisf.DA_o)
                  0x000818                  ___floatunsisf
 .libm.funpack    0x00081c         0x2a /Applications/microchip/xc16/v2.10/bin/bin/../../lib/libc99-pic30-elf.a(funpack.DA_o)
                  0x00081c                  __funpack
 .libm.udivsi3    0x000846         0x20 /Applications/microchip/xc16/v2.10/bin/bin/../../lib/libc99-pic30-elf.a(udivsi3.DA_o)
                  0x000846                  ___udivsi3
 .libmx           0x000866        0x1dc /Applications/microchip/xc16/v2.10/bin/bin/../../lib/libc99-pic30-elf.a(addsf3x.DA_o)
                  0x000866                  ___subsf3
                  0x000866                  ___subsf3x
                  0x000878                  ___addsf3
                  0x000878                  ___addsf3x
 .libmx           0x000a42        0x1be /Applications/microchip/xc16/v2.10/bin/bin/../../lib/libc99-pic30-elf.a(divsf3x.DA_o)
                  0x000a42                  ___divsf3x
                  0x000a42                  ___divsf3
                  0x000bd4                  __sdivf
 .libmx           0x000c00        0x10c /Applications/microchip/xc16/v2.10/bin/bin/../../lib/libc99-pic30-elf.a(mulsf3x.DA_o)
                  0x000c00                  ___mulsf3
                  0x000c00                  ___mulsf3x
 .libmx           0x000d0c         0x54 /Applications/microchip/xc16/v2.10/bin/bin/../../lib/libc99-pic30-elf.a(dnrmpackfx.DA_o)
                  0x000d0c                  __dnrmpackf
 .libmx           0x000d60         0x5e /Applications/microchip/xc16/v2.10/bin/bin/../../lib/libc99-pic30-elf.a(unpackdnrmfx.DA_o)
                  0x000d60                  __unpackdnrmf
 .libmx           0x000dbe         0x34 /Applications/microchip/xc16/v2.10/bin/bin/../../lib/libc99-pic30-elf.a(typefx.DA_o)
                  0x000dbe                  __typef
 .libmx           0x000df2         0x12 /Applications/microchip/xc16/v2.10/bin/bin/../../lib/libc99-pic30-elf.a(propnanfx.DA_o)
                  0x000df2                  __propnanf
 .libmx           0x000e04         0xa6 /Applications/microchip/xc16/v2.10/bin/bin/../../lib/libc99-pic30-elf.a(spackfx.DA_o)
                  0x000e04                  __spackf
 .libmx           0x000eaa         0x66 /Applications/microchip/xc16/v2.10/bin/bin/../../lib/libc99-pic30-elf.a(unpackfx.DA_o)
                  0x000eaa                  __unpackf
 .libm.__PplusBdi
                  0x000f10         0x26 /Applications/microchip/xc16/v2.10/bin/bin/../../lib/libc99-pic30-elf.a(divmoddi3.DA_o)
 .libm.__PminusBdi
                  0x000f36         0x26 /Applications/microchip/xc16/v2.10/bin/bin/../../lib/libc99-pic30-elf.a(divmoddi3.DA_o)
 .libm.__udivmoddi3
                  0x000f5c         0xe6 /Applications/microchip/xc16/v2.10/bin/bin/../../lib/libc99-pic30-elf.a(divmoddi3.DA_o)
                  0x000f5c                  ___udivmoddi3
 .libm.__udivdi3
                  0x001042          0xe /Applications/microchip/xc16/v2.10/bin/bin/../../lib/libc99-pic30-elf.a(divmoddi3.DA_o)
                  0x001042                  ___udivdi3
 .libm.__umoddi3
                  0x001050          0x8 /Applications/microchip/xc16/v2.10/bin/bin/../../lib/libc99-pic30-elf.a(divmoddi3.DA_o)
                  0x001050                  ___umoddi3
 .libm.__divdi3
                  0x001058         0x60 /Applications/microchip/xc16/v2.10/bin/bin/../../lib/libc99-pic30-elf.a(divmoddi3.DA_o)
                  0x001058                  ___divdi3
 .libm.__moddi3
                  0x0010b8         0x5c /Applications/microchip/xc16/v2.10/bin/bin/../../lib/libc99-pic30-elf.a(divmoddi3.DA_o)
                  0x0010b8                  ___moddi3
 .libm.__muldi3
                  0x001114         0x52 /Applications/microchip/xc16/v2.10/bin/bin/../../lib/libc99-pic30-elf.a(muldi3.DA_o)
                  0x001114                  ___muldi3
 .libm.fcompare
                  0x001166         0x36 /Applications/microchip/xc16/v2.10/bin/bin/../../lib/libc99-pic30-elf.a(fcompare.DA_o)
                  0x001166                  __fcompare
 .libm.floatdisf
                  0x00119c         0x20 /Applications/microchip/xc16/v2.10/bin/bin/../../lib/libc99-pic30-elf.a(floatdisf.DA_o)
                  0x00119c                  ___floatdisf
 .libm.floatundisf
                  0x0011bc         0x5e /Applications/microchip/xc16/v2.10/bin/bin/../../lib/libc99-pic30-elf.a(floatundisf.DA_o)
                  0x0011bc                  ___floatundisf
 .libm.fpack      0x00121a         0x4c /Applications/microchip/xc16/v2.10/bin/bin/../../lib/libc99-pic30-elf.a(fpack.DA_o)
                  0x00121a                  __fpack
 .libm.funpack2
                  0x001266         0x10 /Applications/microchip/xc16/v2.10/bin/bin/../../lib/libc99-pic30-elf.a(funpack2.DA_o)
                  0x001266                  __funpack2
 .libm.umuldi3    0x001276         0x44 /Applications/microchip/xc16/v2.10/bin/bin/../../lib/libc99-pic30-elf.a(umuldi3.DA_o)
                  0x001276                  ___umuldi3
 .libc.__wrap_sprintf
                  0x0012ba          0xc /Applications/microchip/xc16/v2.10/bin/bin/../../lib/libc99-elf.a(__sio_sprintf_dfosux.DA_o)
                  0x0012ba                  __sprintf_cdeEnopsuxX
                  0x0012ba                  __sprintf_cdfFgGnopsuxX
                  0x0012ba                  __sprintf_cdgGnopsuxX
                  0x0012ba                  __dsprintf_cdeEfFgGnopsuxX
                  0x0012ba                  __dsprintf_cdfFnopsuxX
                  0x0012ba                  __dsprintf_cdeEnopsuxX
                  0x0012ba                  __sprintf_cdeEfFnopsuxX
                  0x0012ba                  __sprintf_cdeEgGnopsuxX
                  0x0012ba                  __sprintf_cdfFnopsuxX
                  0x0012ba                  __dsprintf_cdeEfFnopsuxX
                  0x0012ba                  __dsprintf_cdeEgGnopsuxX
                  0x0012ba                  __dsprintf_cdfFgGnopsuxX
                  0x0012ba                  __dsprintf_cdgGnopsuxX
                  0x0012ba                  __sprintf_cdeEfFgGnopsuxX
 .libc.__sio_sprintf_dfosux
                  0x0012c6         0x12 /Applications/microchip/xc16/v2.10/bin/bin/../../lib/libc99-elf.a(__sio_sprintf_dfosux.DA_o)
                  0x0012c6                  ___sio_sprintf_dfosux
 .libc.__wrap_sprintf
                  0x0012d8          0xc /Applications/microchip/xc16/v2.10/bin/bin/../../lib/libc99-elf.a(__sio_sprintf_dosux.DA_o)
                  0x0012d8                  __sprintf_cdnopsuxX
                  0x0012d8                  __dsprintf_cdnopsuxX
 .libc.__sio_sprintf_dosux
                  0x0012e4          0xe /Applications/microchip/xc16/v2.10/bin/bin/../../lib/libc99-elf.a(__sio_sprintf_dosux.DA_o)
                  0x0012e4                  ___sio_sprintf_dosux
 .libc.__wrap_sprintf
                  0x0012f2          0xc /Applications/microchip/xc16/v2.10/bin/bin/../../lib/libc99-elf.a(__sio_sprintf_s.DA_o)
                  0x0012f2                  __dsprintf_s
                  0x0012f2                  __sprintf_s
 .libc.__sio_sprintf_s
                  0x0012fe          0x2 /Applications/microchip/xc16/v2.10/bin/bin/../../lib/libc99-elf.a(__sio_sprintf_s.DA_o)
                  0x0012fe                  ___sio_sprintf_s
 .libc.memcmp     0x001300         0x1c /Applications/microchip/xc16/v2.10/bin/bin/../../lib/libc99-elf.a(memcmp.DA_o)
                  0x001300                  _memcmp
 .libc.memcpy     0x00131c          0xe /Applications/microchip/xc16/v2.10/bin/bin/../../lib/libc99-elf.a(memcpy.DA_o)
                  0x00131c                  _memcpy
 .libc.memset     0x00132a         0xc8 /Applications/microchip/xc16/v2.10/bin/bin/../../lib/libc99-elf.a(memset.DA_o)
                  0x00132a                  _memset
 .libc.strtox     0x0013f2         0x52 /Applications/microchip/xc16/v2.10/bin/bin/../../lib/libc99-elf.a(strtol.DA_o)
 .libc.strtoull
                  0x001444          0x8 /Applications/microchip/xc16/v2.10/bin/bin/../../lib/libc99-elf.a(strtol.DA_o)
                  0x001444                  _strtoull
                  0x001444                  ___strtoull_internal
 .libc.strtoll    0x00144c          0x8 /Applications/microchip/xc16/v2.10/bin/bin/../../lib/libc99-elf.a(strtol.DA_o)
                  0x00144c                  ___strtoll_internal
                  0x00144c                  _strtoll
 .libc.strtoul    0x001454          0x8 /Applications/microchip/xc16/v2.10/bin/bin/../../lib/libc99-elf.a(strtol.DA_o)
                  0x001454                  ___strtoul_internal
                  0x001454                  _strtoul
 .libc.strtol     0x00145c          0x8 /Applications/microchip/xc16/v2.10/bin/bin/../../lib/libc99-elf.a(strtol.DA_o)
                  0x00145c                  ___strtol_internal
                  0x00145c                  _strtol
 .libc.strtoimax
                  0x001464          0x2 /Applications/microchip/xc16/v2.10/bin/bin/../../lib/libc99-elf.a(strtol.DA_o)
                  0x001464                  _strtoimax
                  0x001464                  ___strtoimax_internal
 .libc.strtoumax
                  0x001466          0x2 /Applications/microchip/xc16/v2.10/bin/bin/../../lib/libc99-elf.a(strtol.DA_o)
                  0x001466                  ___strtoumax_internal
                  0x001466                  _strtoumax
 .libc.__fmt_d    0x001468         0xb2 /Applications/microchip/xc16/v2.10/bin/bin/../../lib/libc99-elf.a(__fmt_d.DA_o)
                  0x001468                  ___fmt_d_needed
                  0x001468                  ___fmt_d
 .libc.__LONG_DOUBLE_BITS
                  0x00151a          0x2 /Applications/microchip/xc16/v2.10/bin/bin/../../lib/libc99-elf.a(__fmt_fp.DA_o)
 .libc.__fmt_fp
                  0x00151c        0x5b6 /Applications/microchip/xc16/v2.10/bin/bin/../../lib/libc99-elf.a(__fmt_fp.DA_o)
                  0x00151c                  ___fmt_fp
                  0x00151c                  ___fmt_f_needed
 .libc.__fmt_o    0x001ad2         0x6a /Applications/microchip/xc16/v2.10/bin/bin/../../lib/libc99-elf.a(__fmt_o.DA_o)
                  0x001ad2                  ___fmt_o_needed
                  0x001ad2                  ___fmt_o
 .libc.__fmt_s    0x001b3c         0x54 /Applications/microchip/xc16/v2.10/bin/bin/../../lib/libc99-elf.a(__fmt_s.DA_o)
                  0x001b3c                  ___fmt_s
                  0x001b3c                  ___fmt_0_needed
                  0x001b3c                  ___fmt_s_needed
 .libc.__cvt_u    0x001b90         0xa6 /Applications/microchip/xc16/v2.10/bin/bin/../../lib/libc99-elf.a(__fmt_u.DA_o)
                  0x001b90                  ___cvt_u
 .libc.__fmt_u    0x001c36         0x52 /Applications/microchip/xc16/v2.10/bin/bin/../../lib/libc99-elf.a(__fmt_u.DA_o)
                  0x001c36                  ___fmt_u_needed
                  0x001c36                  ___fmt_u
 .libc.__fmt_x    0x001c88        0x14a /Applications/microchip/xc16/v2.10/bin/bin/../../lib/libc99-elf.a(__fmt_x.DA_o)
                  0x001c88                  ___fmt_x
                  0x001c88                  ___fmt_x_needed
 .libc.__vsprintf
                  0x001dd2          0x8 /Applications/microchip/xc16/v2.10/bin/bin/../../lib/libc99-elf.a(__int_vsprintf.DA_o)
                  0x001dd2                  ___vsprintf
 .libc.__pop_float
                  0x001dda         0x3e /Applications/microchip/xc16/v2.10/bin/bin/../../lib/libc99-elf.a(__pop_float.DA_o)
                  0x001dda                  ___pop_float_needed
                  0x001dda                  ___pop_float
 .libc.__pop_int
                  0x001e18         0xa8 /Applications/microchip/xc16/v2.10/bin/bin/../../lib/libc99-elf.a(__pop_int.DA_o)
                  0x001e18                  ___pop_int_needed
                  0x001e18                  ___pop_int
 .libc.__pop_ptr
                  0x001ec0         0x70 /Applications/microchip/xc16/v2.10/bin/bin/../../lib/libc99-elf.a(__pop_ptr.DA_o)
                  0x001ec0                  ___pop_ptr
                  0x001ec0                  ___pop_ptr_needed
 .libc.__string_out
                  0x001f30         0x26 /Applications/microchip/xc16/v2.10/bin/bin/../../lib/libc99-elf.a(__printf_core.DA_o)
                  0x001f30                  ___out
 .libc.__pad      0x001f56         0x74 /Applications/microchip/xc16/v2.10/bin/bin/../../lib/libc99-elf.a(__printf_core.DA_o)
                  0x001f56                  ___pad
 .libc.__dummy_fmt3
                  0x001fca          0x2 /Applications/microchip/xc16/v2.10/bin/bin/../../lib/libc99-elf.a(__printf_core.DA_o)
 .libc.__dummy_fmt4
                  0x001fcc          0x2 /Applications/microchip/xc16/v2.10/bin/bin/../../lib/libc99-elf.a(__printf_core.DA_o)
                  0x001fcc                  ___fmt_a
 .libc.__dummy_fmts
                  0x001fce          0x2 /Applications/microchip/xc16/v2.10/bin/bin/../../lib/libc99-elf.a(__printf_core.DA_o)
 .libc.__fmt_state
                  0x001fd0         0x2c /Applications/microchip/xc16/v2.10/bin/bin/../../lib/libc99-elf.a(__printf_core.DA_o)
                  0x001fd0                  ___fmt_state
 .libc.vfpfcnvrt.clone.0
                  0x001ffc        0x2d8 /Applications/microchip/xc16/v2.10/bin/bin/../../lib/libc99-elf.a(__printf_core.DA_o)
 .libc.__printf_core
                  0x0022d4         0x40 /Applications/microchip/xc16/v2.10/bin/bin/../../lib/libc99-elf.a(__printf_core.DA_o)
                  0x0022d4                  ___printf_core
 .libc.__isspace
                  0x002314         0x14 /Applications/microchip/xc16/v2.10/bin/bin/../../lib/libc99-elf.a(atoi.DA_o)
 .libc.atoi       0x002328         0x4c /Applications/microchip/xc16/v2.10/bin/bin/../../lib/libc99-elf.a(atoi.DA_o)
                  0x002328                  _atoi
 .libc.__isspace
                  0x002374         0x14 /Applications/microchip/xc16/v2.10/bin/bin/../../lib/libc99-elf.a(intscan.DA_o)
 .libc.__intscan
                  0x002388        0x432 /Applications/microchip/xc16/v2.10/bin/bin/../../lib/libc99-elf.a(intscan.DA_o)
                  0x002388                  ___intscan
 .libc.__shlim    0x0027ba         0x4a /Applications/microchip/xc16/v2.10/bin/bin/../../lib/libc99-elf.a(shgetc.DA_o)
                  0x0027ba                  ___shlim
 .libc.__shgetc
                  0x002804        0x130 /Applications/microchip/xc16/v2.10/bin/bin/../../lib/libc99-elf.a(shgetc.DA_o)
                  0x002804                  ___shgetc
 .libc.strcpy     0x002934          0xe /Applications/microchip/xc16/v2.10/bin/bin/../../lib/libc99-elf.a(strcpy.DA_o)
                  0x002934                  _strcpy
 .libc.strlen     0x002942         0x30 /Applications/microchip/xc16/v2.10/bin/bin/../../lib/libc99-elf.a(strlen.DA_o)
                  0x002942                  _strlen
 .libc.tolower    0x002972          0xc /Applications/microchip/xc16/v2.10/bin/bin/../../lib/libc99-elf.a(tolower.DA_o)
                  0x002972                  _tolower
 .libc.__tolower_l
                  0x00297e          0x2 /Applications/microchip/xc16/v2.10/bin/bin/../../lib/libc99-elf.a(tolower.DA_o)
                  0x00297e                  _tolower_l
                  0x00297e                  ___tolower_l
 .libc.toupper    0x002980          0xc /Applications/microchip/xc16/v2.10/bin/bin/../../lib/libc99-elf.a(toupper.DA_o)
                  0x002980                  _toupper
 .libc.__toupper_l
                  0x00298c          0x2 /Applications/microchip/xc16/v2.10/bin/bin/../../lib/libc99-elf.a(toupper.DA_o)
                  0x00298c                  _toupper_l
                  0x00298c                  ___toupper_l
 .libc.__vsnprintf
                  0x00298e         0x4a /Applications/microchip/xc16/v2.10/bin/bin/../../lib/libc99-elf.a(__int_vsnprintf.DA_o)
                  0x00298e                  ___vsnprintf
 .libc.__uflow    0x0029d8         0x2a /Applications/microchip/xc16/v2.10/bin/bin/../../lib/libc99-elf.a(__uflow.DA_o)
                  0x0029d8                  ___uflow
 .libc.__stpcpy
                  0x002a02         0x40 /Applications/microchip/xc16/v2.10/bin/bin/../../lib/libc99-elf.a(stpcpy.DA_o)
                  0x002a02                  _stpcpy
                  0x002a02                  ___stpcpy
 .libc.__vfprintf
                  0x002a42         0x1c /Applications/microchip/xc16/v2.10/bin/bin/../../lib/libc99-elf.a(__int_vfprintf.DA_o)
                  0x002a42                  ___vfprintf
 .libc.__toread
                  0x002a5e         0x48 /Applications/microchip/xc16/v2.10/bin/bin/../../lib/libc99-elf.a(__toread.DA_o)
                  0x002a5e                  ___toread
 .libc.__toread_needs_stdio_exit
                  0x002aa6          0x2 /Applications/microchip/xc16/v2.10/bin/bin/../../lib/libc99-elf.a(__toread.DA_o)
                  0x002aa6                  ___toread_needs_stdio_exit
 .libc.__dummy    0x002aa8          0x2 /Applications/microchip/xc16/v2.10/bin/bin/../../lib/libc99-elf.a(__stdio_exit.DA_o)
                  0x002aa8                  ___stdio_exit_ofl
 .libc.__dummy1
                  0x002aaa          0x2 /Applications/microchip/xc16/v2.10/bin/bin/../../lib/libc99-elf.a(__stdio_exit.DA_o)
                  0x002aaa                  ___fclose
 .libc.__stdio_exit
                  0x002aac         0x14 /Applications/microchip/xc16/v2.10/bin/bin/../../lib/libc99-elf.a(__stdio_exit.DA_o)
                  0x002aac                  ___stdio_exit
                  0x002aac                  ___stdio_exit_needed
 .libm.eqdf2      0x002ac0          0xa /Applications/microchip/xc16/v2.10/bin/bin/../../lib/libc99-pic30-elf.a(deqltle.DA_o)
                  0x002ac0                  ___ledf2
                  0x002ac0                  ___eqdf2
                  0x002ac0                  ___ltdf2
 .libm.gtdf2      0x002aca          0xa /Applications/microchip/xc16/v2.10/bin/bin/../../lib/libc99-pic30-elf.a(dgtge.DA_o)
                  0x002aca                  ___gedf2
                  0x002aca                  ___gtdf2
 .libm.extendsfdf2
                  0x002ad4         0x3e /Applications/microchip/xc16/v2.10/bin/bin/../../lib/libc99-pic30-elf.a(extendsfdf.DA_o)
                  0x002ad4                  ___extendsfdf2
 .libm.fixdfsi    0x002b12         0x58 /Applications/microchip/xc16/v2.10/bin/bin/../../lib/libc99-pic30-elf.a(fixdfsi.DA_o)
                  0x002b12                  _(float, int, long long, double, float, short, int)
 .libm.mulsi3     0x002b6a          0xc /Applications/microchip/xc16/v2.10/bin/bin/../../lib/libc99-pic30-elf.a(mulsi3.DA_o)
                  0x002b6a                  ___mulp32eds3
                  0x002b6a                  ___mulp32peds3
                  0x002b6a                  ___mulsi3
 .lib_dpfops      0x002b76         0xa2 /Applications/microchip/xc16/v2.10/bin/bin/../../lib/libc99-pic30-elf.a(dpadd.DA_o)
                  0x002b76                  ___subdf3
                  0x002b82                  ___adddf3
 .lib_dpfops      0x002c18        0x15e /Applications/microchip/xc16/v2.10/bin/bin/../../lib/libc99-pic30-elf.a(dpdiv.DA_o)
                  0x002c18                  ___divdf3
 .lib_dpfops      0x002d76        0x11a /Applications/microchip/xc16/v2.10/bin/bin/../../lib/libc99-pic30-elf.a(dpmul.DA_o)
                  0x002d76                  ___muldf3
 .lib_dpfops      0x002e90        0x128 /Applications/microchip/xc16/v2.10/bin/bin/../../lib/libc99-pic30-elf.a(dpsubs.DA_o)
                  0x002eaa                  __dxchg
                  0x002eb8                  __drshft
                  0x002f12                  __dupchk
                  0x002f74                  __drndex
                  0x002f7e                  __dnsrnd
                  0x002faa                  __dpakex
 .libm.dcompare
                  0x002fb8         0x52 /Applications/microchip/xc16/v2.10/bin/bin/../../lib/libc99-pic30-elf.a(dcompare.DA_o)
                  0x002fb8                  __dcompare
 .libm.dtype      0x00300a         0x24 /Applications/microchip/xc16/v2.10/bin/bin/../../lib/libc99-pic30-elf.a(dtype.DA_o)
                  0x00300a                  __dtype
 .libm.dunpack    0x00302e         0x4e /Applications/microchip/xc16/v2.10/bin/bin/../../lib/libc99-pic30-elf.a(dunpack.DA_o)
                  0x00302e                  __dunpack
 .libm.dunpack2
                  0x00307c         0x32 /Applications/microchip/xc16/v2.10/bin/bin/../../lib/libc99-pic30-elf.a(dunpack2.DA_o)
                  0x00307c                  __dunpack2
                  0x00309e                  __dreturnNaN
                  0x0030a4                  __dunpack2exit
 .libm.dPropagateNaN
                  0x0030ae         0x1c /Applications/microchip/xc16/v2.10/bin/bin/../../lib/libc99-pic30-elf.a(dpropagateNaN.DA_o)
                  0x0030ae                  __dPropagateNaN
 .libc.floorl     0x0030ca         0xf8 /Applications/microchip/xc16/v2.10/bin/bin/../../lib/libm-elf.a(floorl.DA_o)
                  0x0030ca                  _floorl

usercode
 *(usercode)

__FSEC
 *(__FSEC.sec*)

__FBSLIM
 *(__FBSLIM.sec*)

__FSIGN
 *(__FSIGN.sec*)

__FOSCSEL
 *(__FOSCSEL.sec*)

__FOSC
 *(__FOSC.sec*)

__FWDT
 *(__FWDT.sec*)

__FPOR
 *(__FPOR.sec*)

__FICD
 *(__FICD.sec*)

__FDMTIVTL
 *(__FDMTIVTL.sec*)

__FDMTIVTH
 *(__FDMTIVTH.sec*)

__FDMTCNTL
 *(__FDMTCNTL.sec*)

__FDMTCNTH
 *(__FDMTCNTH.sec*)

__FMDT
 *(__FMDT.sec*)

__FDEVOPT1
 *(__FDEVOPT1.sec*)

.comment
 *(.comment)

.debug_info       0x000000      0x10c81
 *(.debug_info)
 .debug_info      0x000000       0x17ae build/default/production/PWM.o
 .debug_info      0x0017ae       0x1b2f build/default/production/bluetooth.o
 .debug_info      0x0032dd       0x3b43 build/default/production/main.o
 .debug_info      0x006e20       0x14f0 build/default/production/owire.o
 .debug_info      0x008310        0xd87 build/default/production/adc.o
 .debug_info      0x009097        0xfb5 build/default/production/piezos.o
 .debug_info      0x00a04c        0x721 build/default/production/eeprom.o
 .debug_info      0x00a76d        0x733 build/default/production/eeprom_async.o
 .debug_info      0x00aea0        0x762 build/default/production/i2c.o
 .debug_info      0x00b602        0x984 build/default/production/i2c_async.o
 .debug_info      0x00bf86        0x592 build/default/production/pod.o
 .debug_info      0x00c518        0x6a2 build/default/production/pod_manager.o
 .debug_info      0x00cbba        0x9ab build/default/production/pod_manager_async.o
 .debug_info      0x00d565       0x219d build/default/production/relay_pwm_manager.o
 .debug_info      0x00f702         0x8d /Applications/microchip/xc16/v2.10/bin/bin/../../lib/libc99-pic30-elf.a(feqltle.DA_o)
 .debug_info      0x00f78f         0x8b /Applications/microchip/xc16/v2.10/bin/bin/../../lib/libc99-pic30-elf.a(fgtge.DA_o)
 .debug_info      0x00f81a         0x8d /Applications/microchip/xc16/v2.10/bin/bin/../../lib/libc99-pic30-elf.a(fixsfsi.DA_o)
 .debug_info      0x00f8a7         0x90 /Applications/microchip/xc16/v2.10/bin/bin/../../lib/libc99-pic30-elf.a(fixunssfsi.DA_o)
 .debug_info      0x00f937         0x8f /Applications/microchip/xc16/v2.10/bin/bin/../../lib/libc99-pic30-elf.a(floatsisf.DA_o)
 .debug_info      0x00f9c6         0x91 /Applications/microchip/xc16/v2.10/bin/bin/../../lib/libc99-pic30-elf.a(floatunsisf.DA_o)
 .debug_info      0x00fa57         0x8d /Applications/microchip/xc16/v2.10/bin/bin/../../lib/libc99-pic30-elf.a(funpack.DA_o)
 .debug_info      0x00fae4         0x8d /Applications/microchip/xc16/v2.10/bin/bin/../../lib/libc99-pic30-elf.a(udivsi3.DA_o)
 .debug_info      0x00fb71         0x9d /Applications/microchip/xc16/v2.10/bin/bin/../../lib/libc99-pic30-elf.a(addsf3x.DA_o)
 .debug_info      0x00fc0e         0x9d /Applications/microchip/xc16/v2.10/bin/bin/../../lib/libc99-pic30-elf.a(divsf3x.DA_o)
 .debug_info      0x00fcab         0x9d /Applications/microchip/xc16/v2.10/bin/bin/../../lib/libc99-pic30-elf.a(mulsf3x.DA_o)
 .debug_info      0x00fd48         0xa0 /Applications/microchip/xc16/v2.10/bin/bin/../../lib/libc99-pic30-elf.a(dnrmpackfx.DA_o)
 .debug_info      0x00fde8         0xa2 /Applications/microchip/xc16/v2.10/bin/bin/../../lib/libc99-pic30-elf.a(unpackdnrmfx.DA_o)
 .debug_info      0x00fe8a         0x9c /Applications/microchip/xc16/v2.10/bin/bin/../../lib/libc99-pic30-elf.a(typefx.DA_o)
 .debug_info      0x00ff26         0x9f /Applications/microchip/xc16/v2.10/bin/bin/../../lib/libc99-pic30-elf.a(propnanfx.DA_o)
 .debug_info      0x00ffc5         0x9d /Applications/microchip/xc16/v2.10/bin/bin/../../lib/libc99-pic30-elf.a(spackfx.DA_o)
 .debug_info      0x010062         0x9e /Applications/microchip/xc16/v2.10/bin/bin/../../lib/libc99-pic30-elf.a(unpackfx.DA_o)
 .debug_info      0x010100         0x8e /Applications/microchip/xc16/v2.10/bin/bin/../../lib/libc99-pic30-elf.a(fcompare.DA_o)
 .debug_info      0x01018e         0x8f /Applications/microchip/xc16/v2.10/bin/bin/../../lib/libc99-pic30-elf.a(floatdisf.DA_o)
 .debug_info      0x01021d         0x91 /Applications/microchip/xc16/v2.10/bin/bin/../../lib/libc99-pic30-elf.a(floatundisf.DA_o)
 .debug_info      0x0102ae         0x8b /Applications/microchip/xc16/v2.10/bin/bin/../../lib/libc99-pic30-elf.a(fpack.DA_o)
 .debug_info      0x010339         0x8e /Applications/microchip/xc16/v2.10/bin/bin/../../lib/libc99-pic30-elf.a(funpack2.DA_o)
 .debug_info      0x0103c7         0x8d /Applications/microchip/xc16/v2.10/bin/bin/../../lib/libc99-pic30-elf.a(umuldi3.DA_o)
 .debug_info      0x010454         0x8d /Applications/microchip/xc16/v2.10/bin/bin/../../lib/libc99-pic30-elf.a(deqltle.DA_o)
 .debug_info      0x0104e1         0x8b /Applications/microchip/xc16/v2.10/bin/bin/../../lib/libc99-pic30-elf.a(dgtge.DA_o)
 .debug_info      0x01056c         0x90 /Applications/microchip/xc16/v2.10/bin/bin/../../lib/libc99-pic30-elf.a(extendsfdf.DA_o)
 .debug_info      0x0105fc         0x8d /Applications/microchip/xc16/v2.10/bin/bin/../../lib/libc99-pic30-elf.a(fixdfsi.DA_o)
 .debug_info      0x010689         0x8c /Applications/microchip/xc16/v2.10/bin/bin/../../lib/libc99-pic30-elf.a(mulsi3.DA_o)
 .debug_info      0x010715         0xa9 /Applications/microchip/xc16/v2.10/bin/bin/../../lib/libc99-pic30-elf.a(dpadd.DA_o)
 .debug_info      0x0107be         0xa9 /Applications/microchip/xc16/v2.10/bin/bin/../../lib/libc99-pic30-elf.a(dpdiv.DA_o)
 .debug_info      0x010867         0xa9 /Applications/microchip/xc16/v2.10/bin/bin/../../lib/libc99-pic30-elf.a(dpmul.DA_o)
 .debug_info      0x010910         0xaa /Applications/microchip/xc16/v2.10/bin/bin/../../lib/libc99-pic30-elf.a(dpsubs.DA_o)
 .debug_info      0x0109ba         0x8e /Applications/microchip/xc16/v2.10/bin/bin/../../lib/libc99-pic30-elf.a(dcompare.DA_o)
 .debug_info      0x010a48         0x8b /Applications/microchip/xc16/v2.10/bin/bin/../../lib/libc99-pic30-elf.a(dtype.DA_o)
 .debug_info      0x010ad3         0x8d /Applications/microchip/xc16/v2.10/bin/bin/../../lib/libc99-pic30-elf.a(dunpack.DA_o)
 .debug_info      0x010b60         0x8e /Applications/microchip/xc16/v2.10/bin/bin/../../lib/libc99-pic30-elf.a(dunpack2.DA_o)
 .debug_info      0x010bee         0x93 /Applications/microchip/xc16/v2.10/bin/bin/../../lib/libc99-pic30-elf.a(dpropagateNaN.DA_o)
 *(.gnu.linkonce.wi.*)

.debug_abbrev     0x000000       0x1755
 *(.debug_abbrev)
 .debug_abbrev    0x000000        0x157 build/default/production/PWM.o
 .debug_abbrev    0x000157        0x227 build/default/production/bluetooth.o
 .debug_abbrev    0x00037e        0x26c build/default/production/main.o
 .debug_abbrev    0x0005ea        0x22d build/default/production/owire.o
 .debug_abbrev    0x000817        0x143 build/default/production/adc.o
 .debug_abbrev    0x00095a        0x212 build/default/production/piezos.o
 .debug_abbrev    0x000b6c         0xff build/default/production/eeprom.o
 .debug_abbrev    0x000c6b         0xff build/default/production/eeprom_async.o
 .debug_abbrev    0x000d6a        0x13f build/default/production/i2c.o
 .debug_abbrev    0x000ea9        0x16e build/default/production/i2c_async.o
 .debug_abbrev    0x001017         0xfc build/default/production/pod.o
 .debug_abbrev    0x001113         0xad build/default/production/pod_manager.o
 .debug_abbrev    0x0011c0        0x115 build/default/production/pod_manager_async.o
 .debug_abbrev    0x0012d5        0x19c build/default/production/relay_pwm_manager.o
 .debug_abbrev    0x001471         0x14 /Applications/microchip/xc16/v2.10/bin/bin/../../lib/libc99-pic30-elf.a(feqltle.DA_o)
 .debug_abbrev    0x001485         0x14 /Applications/microchip/xc16/v2.10/bin/bin/../../lib/libc99-pic30-elf.a(fgtge.DA_o)
 .debug_abbrev    0x001499         0x14 /Applications/microchip/xc16/v2.10/bin/bin/../../lib/libc99-pic30-elf.a(fixsfsi.DA_o)
 .debug_abbrev    0x0014ad         0x14 /Applications/microchip/xc16/v2.10/bin/bin/../../lib/libc99-pic30-elf.a(fixunssfsi.DA_o)
 .debug_abbrev    0x0014c1         0x14 /Applications/microchip/xc16/v2.10/bin/bin/../../lib/libc99-pic30-elf.a(floatsisf.DA_o)
 .debug_abbrev    0x0014d5         0x14 /Applications/microchip/xc16/v2.10/bin/bin/../../lib/libc99-pic30-elf.a(floatunsisf.DA_o)
 .debug_abbrev    0x0014e9         0x14 /Applications/microchip/xc16/v2.10/bin/bin/../../lib/libc99-pic30-elf.a(funpack.DA_o)
 .debug_abbrev    0x0014fd         0x14 /Applications/microchip/xc16/v2.10/bin/bin/../../lib/libc99-pic30-elf.a(udivsi3.DA_o)
 .debug_abbrev    0x001511         0x14 /Applications/microchip/xc16/v2.10/bin/bin/../../lib/libc99-pic30-elf.a(addsf3x.DA_o)
 .debug_abbrev    0x001525         0x14 /Applications/microchip/xc16/v2.10/bin/bin/../../lib/libc99-pic30-elf.a(divsf3x.DA_o)
 .debug_abbrev    0x001539         0x14 /Applications/microchip/xc16/v2.10/bin/bin/../../lib/libc99-pic30-elf.a(mulsf3x.DA_o)
 .debug_abbrev    0x00154d         0x14 /Applications/microchip/xc16/v2.10/bin/bin/../../lib/libc99-pic30-elf.a(dnrmpackfx.DA_o)
 .debug_abbrev    0x001561         0x14 /Applications/microchip/xc16/v2.10/bin/bin/../../lib/libc99-pic30-elf.a(unpackdnrmfx.DA_o)
 .debug_abbrev    0x001575         0x14 /Applications/microchip/xc16/v2.10/bin/bin/../../lib/libc99-pic30-elf.a(typefx.DA_o)
 .debug_abbrev    0x001589         0x14 /Applications/microchip/xc16/v2.10/bin/bin/../../lib/libc99-pic30-elf.a(propnanfx.DA_o)
 .debug_abbrev    0x00159d         0x14 /Applications/microchip/xc16/v2.10/bin/bin/../../lib/libc99-pic30-elf.a(spackfx.DA_o)
 .debug_abbrev    0x0015b1         0x14 /Applications/microchip/xc16/v2.10/bin/bin/../../lib/libc99-pic30-elf.a(unpackfx.DA_o)
 .debug_abbrev    0x0015c5         0x14 /Applications/microchip/xc16/v2.10/bin/bin/../../lib/libc99-pic30-elf.a(fcompare.DA_o)
 .debug_abbrev    0x0015d9         0x14 /Applications/microchip/xc16/v2.10/bin/bin/../../lib/libc99-pic30-elf.a(floatdisf.DA_o)
 .debug_abbrev    0x0015ed         0x14 /Applications/microchip/xc16/v2.10/bin/bin/../../lib/libc99-pic30-elf.a(floatundisf.DA_o)
 .debug_abbrev    0x001601         0x14 /Applications/microchip/xc16/v2.10/bin/bin/../../lib/libc99-pic30-elf.a(fpack.DA_o)
 .debug_abbrev    0x001615         0x14 /Applications/microchip/xc16/v2.10/bin/bin/../../lib/libc99-pic30-elf.a(funpack2.DA_o)
 .debug_abbrev    0x001629         0x14 /Applications/microchip/xc16/v2.10/bin/bin/../../lib/libc99-pic30-elf.a(umuldi3.DA_o)
 .debug_abbrev    0x00163d         0x14 /Applications/microchip/xc16/v2.10/bin/bin/../../lib/libc99-pic30-elf.a(deqltle.DA_o)
 .debug_abbrev    0x001651         0x14 /Applications/microchip/xc16/v2.10/bin/bin/../../lib/libc99-pic30-elf.a(dgtge.DA_o)
 .debug_abbrev    0x001665         0x14 /Applications/microchip/xc16/v2.10/bin/bin/../../lib/libc99-pic30-elf.a(extendsfdf.DA_o)
 .debug_abbrev    0x001679         0x14 /Applications/microchip/xc16/v2.10/bin/bin/../../lib/libc99-pic30-elf.a(fixdfsi.DA_o)
 .debug_abbrev    0x00168d         0x14 /Applications/microchip/xc16/v2.10/bin/bin/../../lib/libc99-pic30-elf.a(mulsi3.DA_o)
 .debug_abbrev    0x0016a1         0x14 /Applications/microchip/xc16/v2.10/bin/bin/../../lib/libc99-pic30-elf.a(dpadd.DA_o)
 .debug_abbrev    0x0016b5         0x14 /Applications/microchip/xc16/v2.10/bin/bin/../../lib/libc99-pic30-elf.a(dpdiv.DA_o)
 .debug_abbrev    0x0016c9         0x14 /Applications/microchip/xc16/v2.10/bin/bin/../../lib/libc99-pic30-elf.a(dpmul.DA_o)
 .debug_abbrev    0x0016dd         0x14 /Applications/microchip/xc16/v2.10/bin/bin/../../lib/libc99-pic30-elf.a(dpsubs.DA_o)
 .debug_abbrev    0x0016f1         0x14 /Applications/microchip/xc16/v2.10/bin/bin/../../lib/libc99-pic30-elf.a(dcompare.DA_o)
 .debug_abbrev    0x001705         0x14 /Applications/microchip/xc16/v2.10/bin/bin/../../lib/libc99-pic30-elf.a(dtype.DA_o)
 .debug_abbrev    0x001719         0x14 /Applications/microchip/xc16/v2.10/bin/bin/../../lib/libc99-pic30-elf.a(dunpack.DA_o)
 .debug_abbrev    0x00172d         0x14 /Applications/microchip/xc16/v2.10/bin/bin/../../lib/libc99-pic30-elf.a(dunpack2.DA_o)
 .debug_abbrev    0x001741         0x14 /Applications/microchip/xc16/v2.10/bin/bin/../../lib/libc99-pic30-elf.a(dpropagateNaN.DA_o)

.debug_line       0x000000       0x26d0
 *(.debug_line)
 .debug_line      0x000000        0x147 build/default/production/PWM.o
 .debug_line      0x000147        0x28c build/default/production/bluetooth.o
 .debug_line      0x0003d3        0x2c2 build/default/production/main.o
 .debug_line      0x000695        0x2f4 build/default/production/owire.o
 .debug_line      0x000989        0x124 build/default/production/adc.o
 .debug_line      0x000aad        0x292 build/default/production/piezos.o
 .debug_line      0x000d3f        0x127 build/default/production/eeprom.o
 .debug_line      0x000e66         0xcd build/default/production/eeprom_async.o
 .debug_line      0x000f33        0x15f build/default/production/i2c.o
 .debug_line      0x001092        0x1c9 build/default/production/i2c_async.o
 .debug_line      0x00125b         0xbd build/default/production/pod.o
 .debug_line      0x001318         0xb5 build/default/production/pod_manager.o
 .debug_line      0x0013cd        0x106 build/default/production/pod_manager_async.o
 .debug_line      0x0014d3        0x199 build/default/production/relay_pwm_manager.o
 .debug_line      0x00166c         0x37 /Applications/microchip/xc16/v2.10/bin/bin/../../lib/libc99-pic30-elf.a(feqltle.DA_o)
 .debug_line      0x0016a3         0x35 /Applications/microchip/xc16/v2.10/bin/bin/../../lib/libc99-pic30-elf.a(fgtge.DA_o)
 .debug_line      0x0016d8         0x56 /Applications/microchip/xc16/v2.10/bin/bin/../../lib/libc99-pic30-elf.a(fixsfsi.DA_o)
 .debug_line      0x00172e         0x53 /Applications/microchip/xc16/v2.10/bin/bin/../../lib/libc99-pic30-elf.a(fixunssfsi.DA_o)
 .debug_line      0x001781         0x3a /Applications/microchip/xc16/v2.10/bin/bin/../../lib/libc99-pic30-elf.a(floatsisf.DA_o)
 .debug_line      0x0017bb         0x3b /Applications/microchip/xc16/v2.10/bin/bin/../../lib/libc99-pic30-elf.a(floatunsisf.DA_o)
 .debug_line      0x0017f6         0x4a /Applications/microchip/xc16/v2.10/bin/bin/../../lib/libc99-pic30-elf.a(funpack.DA_o)
 .debug_line      0x001840         0x45 /Applications/microchip/xc16/v2.10/bin/bin/../../lib/libc99-pic30-elf.a(udivsi3.DA_o)
 .debug_line      0x001885        0x136 /Applications/microchip/xc16/v2.10/bin/bin/../../lib/libc99-pic30-elf.a(addsf3x.DA_o)
 .debug_line      0x0019bb        0x124 /Applications/microchip/xc16/v2.10/bin/bin/../../lib/libc99-pic30-elf.a(divsf3x.DA_o)
 .debug_line      0x001adf         0xcc /Applications/microchip/xc16/v2.10/bin/bin/../../lib/libc99-pic30-elf.a(mulsf3x.DA_o)
 .debug_line      0x001bab         0x72 /Applications/microchip/xc16/v2.10/bin/bin/../../lib/libc99-pic30-elf.a(dnrmpackfx.DA_o)
 .debug_line      0x001c1d         0x7a /Applications/microchip/xc16/v2.10/bin/bin/../../lib/libc99-pic30-elf.a(unpackdnrmfx.DA_o)
 .debug_line      0x001c97         0x5e /Applications/microchip/xc16/v2.10/bin/bin/../../lib/libc99-pic30-elf.a(typefx.DA_o)
 .debug_line      0x001cf5         0x51 /Applications/microchip/xc16/v2.10/bin/bin/../../lib/libc99-pic30-elf.a(propnanfx.DA_o)
 .debug_line      0x001d46         0x98 /Applications/microchip/xc16/v2.10/bin/bin/../../lib/libc99-pic30-elf.a(spackfx.DA_o)
 .debug_line      0x001dde         0x79 /Applications/microchip/xc16/v2.10/bin/bin/../../lib/libc99-pic30-elf.a(unpackfx.DA_o)
 .debug_line      0x001e57         0x1a /Applications/microchip/xc16/v2.10/bin/bin/../../lib/libc99-pic30-elf.a(errno.DA_o)
 .debug_line      0x001e71         0x53 /Applications/microchip/xc16/v2.10/bin/bin/../../lib/libc99-pic30-elf.a(fcompare.DA_o)
 .debug_line      0x001ec4         0x47 /Applications/microchip/xc16/v2.10/bin/bin/../../lib/libc99-pic30-elf.a(floatdisf.DA_o)
 .debug_line      0x001f0b         0x6c /Applications/microchip/xc16/v2.10/bin/bin/../../lib/libc99-pic30-elf.a(floatundisf.DA_o)
 .debug_line      0x001f77         0x5a /Applications/microchip/xc16/v2.10/bin/bin/../../lib/libc99-pic30-elf.a(fpack.DA_o)
 .debug_line      0x001fd1         0x3e /Applications/microchip/xc16/v2.10/bin/bin/../../lib/libc99-pic30-elf.a(funpack2.DA_o)
 .debug_line      0x00200f         0x57 /Applications/microchip/xc16/v2.10/bin/bin/../../lib/libc99-pic30-elf.a(umuldi3.DA_o)
 .debug_line      0x002066         0x3a /Applications/microchip/xc16/v2.10/bin/bin/../../lib/libc99-pic30-elf.a(deqltle.DA_o)
 .debug_line      0x0020a0         0x38 /Applications/microchip/xc16/v2.10/bin/bin/../../lib/libc99-pic30-elf.a(dgtge.DA_o)
 .debug_line      0x0020d8         0x59 /Applications/microchip/xc16/v2.10/bin/bin/../../lib/libc99-pic30-elf.a(extendsfdf.DA_o)
 .debug_line      0x002131         0x61 /Applications/microchip/xc16/v2.10/bin/bin/../../lib/libc99-pic30-elf.a(fixdfsi.DA_o)
 .debug_line      0x002192         0x3a /Applications/microchip/xc16/v2.10/bin/bin/../../lib/libc99-pic30-elf.a(mulsi3.DA_o)
 .debug_line      0x0021cc         0xa2 /Applications/microchip/xc16/v2.10/bin/bin/../../lib/libc99-pic30-elf.a(dpadd.DA_o)
 .debug_line      0x00226e        0x100 /Applications/microchip/xc16/v2.10/bin/bin/../../lib/libc99-pic30-elf.a(dpdiv.DA_o)
 .debug_line      0x00236e         0xde /Applications/microchip/xc16/v2.10/bin/bin/../../lib/libc99-pic30-elf.a(dpmul.DA_o)
 .debug_line      0x00244c         0xe8 /Applications/microchip/xc16/v2.10/bin/bin/../../lib/libc99-pic30-elf.a(dpsubs.DA_o)
 .debug_line      0x002534         0x5f /Applications/microchip/xc16/v2.10/bin/bin/../../lib/libc99-pic30-elf.a(dcompare.DA_o)
 .debug_line      0x002593         0x45 /Applications/microchip/xc16/v2.10/bin/bin/../../lib/libc99-pic30-elf.a(dtype.DA_o)
 .debug_line      0x0025d8         0x5c /Applications/microchip/xc16/v2.10/bin/bin/../../lib/libc99-pic30-elf.a(dunpack.DA_o)
 .debug_line      0x002634         0x53 /Applications/microchip/xc16/v2.10/bin/bin/../../lib/libc99-pic30-elf.a(dunpack2.DA_o)
 .debug_line      0x002687         0x49 /Applications/microchip/xc16/v2.10/bin/bin/../../lib/libc99-pic30-elf.a(dpropagateNaN.DA_o)

.debug_frame      0x000000       0x13b4
 *(.debug_frame)
 .debug_frame     0x000000         0x9e build/default/production/PWM.o
 .debug_frame     0x00009e        0x3ce build/default/production/bluetooth.o
 .debug_frame     0x00046c        0x320 build/default/production/main.o
 .debug_frame     0x00078c        0x3ba build/default/production/owire.o
 .debug_frame     0x000b46         0x48 build/default/production/adc.o
 .debug_frame     0x000b8e        0x26a build/default/production/piezos.o
 .debug_frame     0x000df8         0xca build/default/production/eeprom.o
 .debug_frame     0x000ec2         0x62 build/default/production/eeprom_async.o
 .debug_frame     0x000f24        0x120 build/default/production/i2c.o
 .debug_frame     0x001044         0xd4 build/default/production/i2c_async.o
 .debug_frame     0x001118         0x96 build/default/production/pod.o
 .debug_frame     0x0011ae         0xe4 build/default/production/pod_manager_async.o
 .debug_frame     0x001292        0x122 build/default/production/relay_pwm_manager.o

.debug_str        0x000000        0x59e
 *(.debug_str)
 .debug_str       0x000000         0xa2 build/default/production/PWM.o
 .debug_str       0x0000a2         0xab build/default/production/bluetooth.o
 .debug_str       0x00014d        0x1d5 build/default/production/main.o
 .debug_str       0x000322         0x60 build/default/production/owire.o
 .debug_str       0x000382         0x68 build/default/production/adc.o
 .debug_str       0x0003ea         0xa4 build/default/production/piezos.o
 .debug_str       0x00048e         0x14 build/default/production/eeprom.o
 .debug_str       0x0004a2         0x1c build/default/production/i2c.o
 .debug_str       0x0004be         0x12 build/default/production/i2c_async.o
 .debug_str       0x0004d0         0xce build/default/production/relay_pwm_manager.o

.debug_loc
 *(.debug_loc)

.debug_macinfo
 *(.debug_macinfo)

.debug_pubnames
                  0x000000        0xcbf
 *(.debug_pubnames)
 .debug_pubnames
                  0x000000         0x8c build/default/production/PWM.o
 .debug_pubnames
                  0x00008c        0x1db build/default/production/bluetooth.o
 .debug_pubnames
                  0x000267        0x1e6 build/default/production/main.o
 .debug_pubnames
                  0x00044d        0x33f build/default/production/owire.o
 .debug_pubnames
                  0x00078c         0x84 build/default/production/adc.o
 .debug_pubnames
                  0x000810        0x1fc build/default/production/piezos.o
 .debug_pubnames
                  0x000a0c         0x8c build/default/production/eeprom.o
 .debug_pubnames
                  0x000a98         0x40 build/default/production/eeprom_async.o
 .debug_pubnames
                  0x000ad8         0x8d build/default/production/i2c.o
 .debug_pubnames
                  0x000b65         0x4e build/default/production/i2c_async.o
 .debug_pubnames
                  0x000bb3         0x53 build/default/production/pod.o
 .debug_pubnames
                  0x000c06         0x5d build/default/production/pod_manager_async.o
 .debug_pubnames
                  0x000c63         0x5c build/default/production/relay_pwm_manager.o

.debug_ranges
 *(.debug_ranges)

.debug_aranges    0x000000        0x5d8
 *(.debug_aranges)
 .debug_aranges
                  0x000000         0x18 build/default/production/PWM.o
 .debug_aranges
                  0x000018         0x18 build/default/production/bluetooth.o
 .debug_aranges
                  0x000030         0x18 build/default/production/main.o
 .debug_aranges
                  0x000048         0x18 build/default/production/owire.o
 .debug_aranges
                  0x000060         0x18 build/default/production/adc.o
 .debug_aranges
                  0x000078         0x18 build/default/production/piezos.o
 .debug_aranges
                  0x000090         0x18 build/default/production/eeprom.o
 .debug_aranges
                  0x0000a8         0x18 build/default/production/eeprom_async.o
 .debug_aranges
                  0x0000c0         0x18 build/default/production/i2c.o
 .debug_aranges
                  0x0000d8         0x18 build/default/production/i2c_async.o
 .debug_aranges
                  0x0000f0         0x18 build/default/production/pod.o
 .debug_aranges
                  0x000108         0x18 build/default/production/pod_manager_async.o
 .debug_aranges
                  0x000120         0x18 build/default/production/relay_pwm_manager.o
 .debug_aranges
                  0x000138         0x20 /Applications/microchip/xc16/v2.10/bin/bin/../../lib/libc99-pic30-elf.a(feqltle.DA_o)
 .debug_aranges
                  0x000158         0x20 /Applications/microchip/xc16/v2.10/bin/bin/../../lib/libc99-pic30-elf.a(fgtge.DA_o)
 .debug_aranges
                  0x000178         0x20 /Applications/microchip/xc16/v2.10/bin/bin/../../lib/libc99-pic30-elf.a(fixsfsi.DA_o)
 .debug_aranges
                  0x000198         0x20 /Applications/microchip/xc16/v2.10/bin/bin/../../lib/libc99-pic30-elf.a(fixunssfsi.DA_o)
 .debug_aranges
                  0x0001b8         0x20 /Applications/microchip/xc16/v2.10/bin/bin/../../lib/libc99-pic30-elf.a(floatsisf.DA_o)
 .debug_aranges
                  0x0001d8         0x20 /Applications/microchip/xc16/v2.10/bin/bin/../../lib/libc99-pic30-elf.a(floatunsisf.DA_o)
 .debug_aranges
                  0x0001f8         0x20 /Applications/microchip/xc16/v2.10/bin/bin/../../lib/libc99-pic30-elf.a(funpack.DA_o)
 .debug_aranges
                  0x000218         0x20 /Applications/microchip/xc16/v2.10/bin/bin/../../lib/libc99-pic30-elf.a(udivsi3.DA_o)
 .debug_aranges
                  0x000238         0x20 /Applications/microchip/xc16/v2.10/bin/bin/../../lib/libc99-pic30-elf.a(addsf3x.DA_o)
 .debug_aranges
                  0x000258         0x20 /Applications/microchip/xc16/v2.10/bin/bin/../../lib/libc99-pic30-elf.a(divsf3x.DA_o)
 .debug_aranges
                  0x000278         0x20 /Applications/microchip/xc16/v2.10/bin/bin/../../lib/libc99-pic30-elf.a(mulsf3x.DA_o)
 .debug_aranges
                  0x000298         0x20 /Applications/microchip/xc16/v2.10/bin/bin/../../lib/libc99-pic30-elf.a(dnrmpackfx.DA_o)
 .debug_aranges
                  0x0002b8         0x20 /Applications/microchip/xc16/v2.10/bin/bin/../../lib/libc99-pic30-elf.a(unpackdnrmfx.DA_o)
 .debug_aranges
                  0x0002d8         0x20 /Applications/microchip/xc16/v2.10/bin/bin/../../lib/libc99-pic30-elf.a(typefx.DA_o)
 .debug_aranges
                  0x0002f8         0x20 /Applications/microchip/xc16/v2.10/bin/bin/../../lib/libc99-pic30-elf.a(propnanfx.DA_o)
 .debug_aranges
                  0x000318         0x20 /Applications/microchip/xc16/v2.10/bin/bin/../../lib/libc99-pic30-elf.a(spackfx.DA_o)
 .debug_aranges
                  0x000338         0x20 /Applications/microchip/xc16/v2.10/bin/bin/../../lib/libc99-pic30-elf.a(unpackfx.DA_o)
 .debug_aranges
                  0x000358         0x20 /Applications/microchip/xc16/v2.10/bin/bin/../../lib/libc99-pic30-elf.a(fcompare.DA_o)
 .debug_aranges
                  0x000378         0x20 /Applications/microchip/xc16/v2.10/bin/bin/../../lib/libc99-pic30-elf.a(floatdisf.DA_o)
 .debug_aranges
                  0x000398         0x20 /Applications/microchip/xc16/v2.10/bin/bin/../../lib/libc99-pic30-elf.a(floatundisf.DA_o)
 .debug_aranges
                  0x0003b8         0x20 /Applications/microchip/xc16/v2.10/bin/bin/../../lib/libc99-pic30-elf.a(fpack.DA_o)
 .debug_aranges
                  0x0003d8         0x20 /Applications/microchip/xc16/v2.10/bin/bin/../../lib/libc99-pic30-elf.a(funpack2.DA_o)
 .debug_aranges
                  0x0003f8         0x20 /Applications/microchip/xc16/v2.10/bin/bin/../../lib/libc99-pic30-elf.a(umuldi3.DA_o)
 .debug_aranges
                  0x000418         0x20 /Applications/microchip/xc16/v2.10/bin/bin/../../lib/libc99-pic30-elf.a(deqltle.DA_o)
 .debug_aranges
                  0x000438         0x20 /Applications/microchip/xc16/v2.10/bin/bin/../../lib/libc99-pic30-elf.a(dgtge.DA_o)
 .debug_aranges
                  0x000458         0x20 /Applications/microchip/xc16/v2.10/bin/bin/../../lib/libc99-pic30-elf.a(extendsfdf.DA_o)
 .debug_aranges
                  0x000478         0x20 /Applications/microchip/xc16/v2.10/bin/bin/../../lib/libc99-pic30-elf.a(fixdfsi.DA_o)
 .debug_aranges
                  0x000498         0x20 /Applications/microchip/xc16/v2.10/bin/bin/../../lib/libc99-pic30-elf.a(mulsi3.DA_o)
 .debug_aranges
                  0x0004b8         0x20 /Applications/microchip/xc16/v2.10/bin/bin/../../lib/libc99-pic30-elf.a(dpadd.DA_o)
 .debug_aranges
                  0x0004d8         0x20 /Applications/microchip/xc16/v2.10/bin/bin/../../lib/libc99-pic30-elf.a(dpdiv.DA_o)
 .debug_aranges
                  0x0004f8         0x20 /Applications/microchip/xc16/v2.10/bin/bin/../../lib/libc99-pic30-elf.a(dpmul.DA_o)
 .debug_aranges
                  0x000518         0x20 /Applications/microchip/xc16/v2.10/bin/bin/../../lib/libc99-pic30-elf.a(dpsubs.DA_o)
 .debug_aranges
                  0x000538         0x20 /Applications/microchip/xc16/v2.10/bin/bin/../../lib/libc99-pic30-elf.a(dcompare.DA_o)
 .debug_aranges
                  0x000558         0x20 /Applications/microchip/xc16/v2.10/bin/bin/../../lib/libc99-pic30-elf.a(dtype.DA_o)
 .debug_aranges
                  0x000578         0x20 /Applications/microchip/xc16/v2.10/bin/bin/../../lib/libc99-pic30-elf.a(dunpack.DA_o)
 .debug_aranges
                  0x000598         0x20 /Applications/microchip/xc16/v2.10/bin/bin/../../lib/libc99-pic30-elf.a(dunpack2.DA_o)
 .debug_aranges
                  0x0005b8         0x20 /Applications/microchip/xc16/v2.10/bin/bin/../../lib/libc99-pic30-elf.a(dpropagateNaN.DA_o)
                    0x0000                  WREG0 = 0x0
                    0x0000                  _WREG0 = 0x0
                    0x0002                  WREG1 = 0x2
                    0x0002                  _WREG1 = 0x2
                    0x0004                  WREG2 = 0x4
                    0x0004                  _WREG2 = 0x4
                    0x0006                  WREG3 = 0x6
                    0x0006                  _WREG3 = 0x6
                    0x0008                  WREG4 = 0x8
                    0x0008                  _WREG4 = 0x8
                    0x000a                  WREG5 = 0xa
                    0x000a                  _WREG5 = 0xa
                    0x000c                  WREG6 = 0xc
                    0x000c                  _WREG6 = 0xc
                    0x000e                  WREG7 = 0xe
                    0x000e                  _WREG7 = 0xe
                    0x0010                  WREG8 = 0x10
                    0x0010                  _WREG8 = 0x10
                    0x0012                  WREG9 = 0x12
                    0x0012                  _WREG9 = 0x12
                    0x0014                  WREG10 = 0x14
                    0x0014                  _WREG10 = 0x14
                    0x0016                  WREG11 = 0x16
                    0x0016                  _WREG11 = 0x16
                    0x0018                  WREG12 = 0x18
                    0x0018                  _WREG12 = 0x18
                    0x001a                  WREG13 = 0x1a
                    0x001a                  _WREG13 = 0x1a
                    0x001c                  WREG14 = 0x1c
                    0x001c                  _WREG14 = 0x1c
                    0x001e                  WREG15 = 0x1e
                    0x001e                  _WREG15 = 0x1e
                    0x0020                  SPLIM = 0x20
                    0x0020                  _SPLIM = 0x20
                    0x002e                  PCL = 0x2e
                    0x002e                  _PCL = 0x2e
                    0x0030                  PCH = 0x30
                    0x0030                  _PCH = 0x30
                    0x0032                  DSRPAG = 0x32
                    0x0032                  _DSRPAG = 0x32
                    0x0032                  _DSRPAGbits = 0x32
                    0x0034                  DSWPAG = 0x34
                    0x0034                  _DSWPAG = 0x34
                    0x0034                  _DSWPAGbits = 0x34
                    0x0036                  RCOUNT = 0x36
                    0x0036                  _RCOUNT = 0x36
                    0x0042                  SR = 0x42
                    0x0042                  _SR = 0x42
                    0x0042                  _SRbits = 0x42
                    0x0044                  CORCON = 0x44
                    0x0044                  _CORCON = 0x44
                    0x0044                  _CORCONbits = 0x44
                    0x0052                  DISICNT = 0x52
                    0x0052                  _DISICNT = 0x52
                    0x0052                  _DISICNTbits = 0x52
                    0x0054                  TBLPAG = 0x54
                    0x0054                  _TBLPAG = 0x54
                    0x0054                  _TBLPAGbits = 0x54
                    0x005c                  DMTCON = 0x5c
                    0x005c                  _DMTCON = 0x5c
                    0x005c                  _DMTCONbits = 0x5c
                    0x0060                  DMTPRECLR = 0x60
                    0x0060                  _DMTPRECLR = 0x60
                    0x0060                  _DMTPRECLRbits = 0x60
                    0x0064                  DMTCLR = 0x64
                    0x0064                  _DMTCLR = 0x64
                    0x0064                  _DMTCLRbits = 0x64
                    0x0068                  DMTSTAT = 0x68
                    0x0068                  _DMTSTAT = 0x68
                    0x0068                  _DMTSTATbits = 0x68
                    0x006c                  DMTCNTL = 0x6c
                    0x006c                  _DMTCNTL = 0x6c
                    0x006e                  DMTCNTH = 0x6e
                    0x006e                  _DMTCNTH = 0x6e
                    0x0070                  DMTHOLDREG = 0x70
                    0x0070                  _DMTHOLDREG = 0x70
                    0x0074                  DMTPSCNTL = 0x74
                    0x0074                  _DMTPSCNTL = 0x74
                    0x0076                  DMTPSCNTH = 0x76
                    0x0076                  _DMTPSCNTH = 0x76
                    0x0078                  DMTPSINTVL = 0x78
                    0x0078                  _DMTPSINTVL = 0x78
                    0x007a                  DMTPSINTVH = 0x7a
                    0x007a                  _DMTPSINTVH = 0x7a
                    0x0080                  INTCON1 = 0x80
                    0x0080                  _INTCON1 = 0x80
                    0x0080                  _INTCON1bits = 0x80
                    0x0082                  INTCON2 = 0x82
                    0x0082                  _INTCON2 = 0x82
                    0x0082                  _INTCON2bits = 0x82
                    0x0084                  INTCON3 = 0x84
                    0x0084                  _INTCON3 = 0x84
                    0x0084                  _INTCON3bits = 0x84
                    0x0086                  INTCON4 = 0x86
                    0x0086                  _INTCON4 = 0x86
                    0x0086                  _INTCON4bits = 0x86
                    0x0088                  IFS0 = 0x88
                    0x0088                  _IFS0 = 0x88
                    0x0088                  _IFS0bits = 0x88
                    0x008a                  IFS1 = 0x8a
                    0x008a                  _IFS1 = 0x8a
                    0x008a                  _IFS1bits = 0x8a
                    0x008c                  IFS2 = 0x8c
                    0x008c                  _IFS2 = 0x8c
                    0x008c                  _IFS2bits = 0x8c
                    0x008e                  IFS3 = 0x8e
                    0x008e                  _IFS3 = 0x8e
                    0x008e                  _IFS3bits = 0x8e
                    0x0090                  IFS4 = 0x90
                    0x0090                  _IFS4 = 0x90
                    0x0090                  _IFS4bits = 0x90
                    0x0092                  IFS5 = 0x92
                    0x0092                  _IFS5 = 0x92
                    0x0092                  _IFS5bits = 0x92
                    0x0094                  IFS6 = 0x94
                    0x0094                  _IFS6 = 0x94
                    0x0094                  _IFS6bits = 0x94
                    0x0096                  IFS7 = 0x96
                    0x0096                  _IFS7 = 0x96
                    0x0096                  _IFS7bits = 0x96
                    0x0098                  IEC0 = 0x98
                    0x0098                  _IEC0 = 0x98
                    0x0098                  _IEC0bits = 0x98
                    0x009a                  IEC1 = 0x9a
                    0x009a                  _IEC1 = 0x9a
                    0x009a                  _IEC1bits = 0x9a
                    0x009c                  IEC2 = 0x9c
                    0x009c                  _IEC2 = 0x9c
                    0x009c                  _IEC2bits = 0x9c
                    0x009e                  IEC3 = 0x9e
                    0x009e                  _IEC3 = 0x9e
                    0x009e                  _IEC3bits = 0x9e
                    0x00a0                  IEC4 = 0xa0
                    0x00a0                  _IEC4 = 0xa0
                    0x00a0                  _IEC4bits = 0xa0
                    0x00a2                  IEC5 = 0xa2
                    0x00a2                  _IEC5 = 0xa2
                    0x00a2                  _IEC5bits = 0xa2
                    0x00a4                  IEC6 = 0xa4
                    0x00a4                  _IEC6 = 0xa4
                    0x00a4                  _IEC6bits = 0xa4
                    0x00a6                  IEC7 = 0xa6
                    0x00a6                  _IEC7 = 0xa6
                    0x00a6                  _IEC7bits = 0xa6
                    0x00a8                  IPC0 = 0xa8
                    0x00a8                  _IPC0 = 0xa8
                    0x00a8                  _IPC0bits = 0xa8
                    0x00aa                  IPC1 = 0xaa
                    0x00aa                  _IPC1 = 0xaa
                    0x00aa                  _IPC1bits = 0xaa
                    0x00ac                  IPC2 = 0xac
                    0x00ac                  _IPC2 = 0xac
                    0x00ac                  _IPC2bits = 0xac
                    0x00ae                  IPC3 = 0xae
                    0x00ae                  _IPC3 = 0xae
                    0x00ae                  _IPC3bits = 0xae
                    0x00b0                  IPC4 = 0xb0
                    0x00b0                  _IPC4 = 0xb0
                    0x00b0                  _IPC4bits = 0xb0
                    0x00b2                  IPC5 = 0xb2
                    0x00b2                  _IPC5 = 0xb2
                    0x00b2                  _IPC5bits = 0xb2
                    0x00b4                  IPC6 = 0xb4
                    0x00b4                  _IPC6 = 0xb4
                    0x00b4                  _IPC6bits = 0xb4
                    0x00b6                  IPC7 = 0xb6
                    0x00b6                  _IPC7 = 0xb6
                    0x00b6                  _IPC7bits = 0xb6
                    0x00b8                  IPC8 = 0xb8
                    0x00b8                  _IPC8 = 0xb8
                    0x00b8                  _IPC8bits = 0xb8
                    0x00ba                  IPC9 = 0xba
                    0x00ba                  _IPC9 = 0xba
                    0x00ba                  _IPC9bits = 0xba
                    0x00bc                  IPC10 = 0xbc
                    0x00bc                  _IPC10 = 0xbc
                    0x00bc                  _IPC10bits = 0xbc
                    0x00be                  IPC11 = 0xbe
                    0x00be                  _IPC11 = 0xbe
                    0x00be                  _IPC11bits = 0xbe
                    0x00c0                  IPC12 = 0xc0
                    0x00c0                  _IPC12 = 0xc0
                    0x00c0                  _IPC12bits = 0xc0
                    0x00c2                  IPC13 = 0xc2
                    0x00c2                  _IPC13 = 0xc2
                    0x00c2                  _IPC13bits = 0xc2
                    0x00c4                  IPC14 = 0xc4
                    0x00c4                  _IPC14 = 0xc4
                    0x00c4                  _IPC14bits = 0xc4
                    0x00c6                  IPC15 = 0xc6
                    0x00c6                  _IPC15 = 0xc6
                    0x00c6                  _IPC15bits = 0xc6
                    0x00c8                  IPC16 = 0xc8
                    0x00c8                  _IPC16 = 0xc8
                    0x00c8                  _IPC16bits = 0xc8
                    0x00ca                  IPC17 = 0xca
                    0x00ca                  _IPC17 = 0xca
                    0x00cc                  IPC18 = 0xcc
                    0x00cc                  _IPC18 = 0xcc
                    0x00cc                  _IPC18bits = 0xcc
                    0x00ce                  IPC19 = 0xce
                    0x00ce                  _IPC19 = 0xce
                    0x00d0                  IPC20 = 0xd0
                    0x00d0                  _IPC20 = 0xd0
                    0x00d0                  _IPC20bits = 0xd0
                    0x00d2                  IPC21 = 0xd2
                    0x00d2                  _IPC21 = 0xd2
                    0x00d2                  _IPC21bits = 0xd2
                    0x00d4                  IPC22 = 0xd4
                    0x00d4                  _IPC22 = 0xd4
                    0x00d4                  _IPC22bits = 0xd4
                    0x00d6                  IPC23 = 0xd6
                    0x00d6                  _IPC23 = 0xd6
                    0x00d6                  _IPC23bits = 0xd6
                    0x00d8                  IPC24 = 0xd8
                    0x00d8                  _IPC24 = 0xd8
                    0x00d8                  _IPC24bits = 0xd8
                    0x00da                  IPC25 = 0xda
                    0x00da                  _IPC25 = 0xda
                    0x00da                  _IPC25bits = 0xda
                    0x00dc                  IPC26 = 0xdc
                    0x00dc                  _IPC26 = 0xdc
                    0x00dc                  _IPC26bits = 0xdc
                    0x00de                  IPC27 = 0xde
                    0x00de                  _IPC27 = 0xde
                    0x00de                  _IPC27bits = 0xde
                    0x00e0                  IPC28 = 0xe0
                    0x00e0                  _IPC28 = 0xe0
                    0x00e2                  IPC29 = 0xe2
                    0x00e2                  _IPC29 = 0xe2
                    0x00e2                  _IPC29bits = 0xe2
                    0x00e4                  INTTREG = 0xe4
                    0x00e4                  _INTTREG = 0xe4
                    0x00e4                  _INTTREGbits = 0xe4
                    0x0100                  OSCCON = 0x100
                    0x0100                  _OSCCON = 0x100
                    0x0100                  _OSCCONbits = 0x100
                    0x0100                  OSCCONL = 0x100
                    0x0100                  _OSCCONL = 0x100
                    0x0101                  OSCCONH = 0x101
                    0x0101                  _OSCCONH = 0x101
                    0x0102                  CLKDIV = 0x102
                    0x0102                  _CLKDIV = 0x102
                    0x0102                  _CLKDIVbits = 0x102
                    0x0106                  OSCTUN = 0x106
                    0x0106                  _OSCTUN = 0x106
                    0x0106                  _OSCTUNbits = 0x106
                    0x010c                  OSCDIV = 0x10c
                    0x010c                  _OSCDIV = 0x10c
                    0x010c                  _OSCDIVbits = 0x10c
                    0x010e                  OSCFDIV = 0x10e
                    0x010e                  _OSCFDIV = 0x10e
                    0x010e                  _OSCFDIVbits = 0x10e
                    0x0110                  RCON = 0x110
                    0x0110                  _RCON = 0x110
                    0x0110                  _RCONbits = 0x110
                    0x0114                  HLVDCON = 0x114
                    0x0114                  _HLVDCON = 0x114
                    0x0114                  _HLVDCONbits = 0x114
                    0x0158                  CRCCON1 = 0x158
                    0x0158                  _CRCCON1 = 0x158
                    0x0158                  _CRCCON1bits = 0x158
                    0x015a                  CRCCON2 = 0x15a
                    0x015a                  _CRCCON2 = 0x15a
                    0x015a                  _CRCCON2bits = 0x15a
                    0x015c                  CRCXORL = 0x15c
                    0x015c                  _CRCXORL = 0x15c
                    0x015c                  _CRCXORLbits = 0x15c
                    0x015e                  CRCXORH = 0x15e
                    0x015e                  _CRCXORH = 0x15e
                    0x015e                  _CRCXORHbits = 0x15e
                    0x0160                  CRCDAT = 0x160
                    0x0160                  _CRCDAT = 0x160
                    0x0160                  CRCDATL = 0x160
                    0x0160                  _CRCDATL = 0x160
                    0x0162                  CRCDATH = 0x162
                    0x0162                  _CRCDATH = 0x162
                    0x0164                  CRCWDAT = 0x164
                    0x0164                  _CRCWDAT = 0x164
                    0x0164                  CRCWDATL = 0x164
                    0x0164                  _CRCWDATL = 0x164
                    0x0166                  CRCWDATH = 0x166
                    0x0166                  _CRCWDATH = 0x166
                    0x0168                  REFOCON1 = 0x168
                    0x0168                  _REFOCON1 = 0x168
                    0x0168                  _REFOCON1bits = 0x168
                    0x0168                  REFOCONL = 0x168
                    0x0168                  _REFOCONL = 0x168
                    0x0168                  _REFOCONLbits = 0x168
                    0x016a                  REFOCON2 = 0x16a
                    0x016a                  _REFOCON2 = 0x16a
                    0x016a                  _REFOCON2bits = 0x16a
                    0x016a                  REFOCONH = 0x16a
                    0x016a                  _REFOCONH = 0x16a
                    0x016a                  _REFOCONHbits = 0x16a
                    0x0178                  PMD1 = 0x178
                    0x0178                  _PMD1 = 0x178
                    0x0178                  _PMD1bits = 0x178
                    0x017a                  PMD2 = 0x17a
                    0x017a                  _PMD2 = 0x17a
                    0x017c                  PMD3 = 0x17c
                    0x017c                  _PMD3 = 0x17c
                    0x017c                  _PMD3bits = 0x17c
                    0x017e                  PMD4 = 0x17e
                    0x017e                  _PMD4 = 0x17e
                    0x017e                  _PMD4bits = 0x17e
                    0x0180                  PMD5 = 0x180
                    0x0180                  _PMD5 = 0x180
                    0x0180                  _PMD5bits = 0x180
                    0x0182                  PMD6 = 0x182
                    0x0182                  _PMD6 = 0x182
                    0x0182                  _PMD6bits = 0x182
                    0x0184                  PMD7 = 0x184
                    0x0184                  _PMD7 = 0x184
                    0x0184                  _PMD7bits = 0x184
                    0x0186                  PMD8 = 0x186
                    0x0186                  _PMD8 = 0x186
                    0x0186                  _PMD8bits = 0x186
                    0x0190                  TMR1 = 0x190
                    0x0190                  _TMR1 = 0x190
                    0x0192                  PR1 = 0x192
                    0x0192                  _PR1 = 0x192
                    0x0194                  T1CON = 0x194
                    0x0194                  _T1CON = 0x194
                    0x0194                  _T1CONbits = 0x194
                    0x0196                  TMR2 = 0x196
                    0x0196                  _TMR2 = 0x196
                    0x0198                  TMR3HLD = 0x198
                    0x0198                  _TMR3HLD = 0x198
                    0x019a                  TMR3 = 0x19a
                    0x019a                  _TMR3 = 0x19a
                    0x019c                  PR2 = 0x19c
                    0x019c                  _PR2 = 0x19c
                    0x019e                  PR3 = 0x19e
                    0x019e                  _PR3 = 0x19e
                    0x01a0                  T2CON = 0x1a0
                    0x01a0                  _T2CON = 0x1a0
                    0x01a0                  _T2CONbits = 0x1a0
                    0x01a2                  T3CON = 0x1a2
                    0x01a2                  _T3CON = 0x1a2
                    0x01a2                  _T3CONbits = 0x1a2
                    0x01a4                  TMR4 = 0x1a4
                    0x01a4                  _TMR4 = 0x1a4
                    0x01a6                  TMR5HLD = 0x1a6
                    0x01a6                  _TMR5HLD = 0x1a6
                    0x01a8                  TMR5 = 0x1a8
                    0x01a8                  _TMR5 = 0x1a8
                    0x01aa                  PR4 = 0x1aa
                    0x01aa                  _PR4 = 0x1aa
                    0x01ac                  PR5 = 0x1ac
                    0x01ac                  _PR5 = 0x1ac
                    0x01ae                  T4CON = 0x1ae
                    0x01ae                  _T4CON = 0x1ae
                    0x01ae                  _T4CONbits = 0x1ae
                    0x01b0                  T5CON = 0x1b0
                    0x01b0                  _T5CON = 0x1b0
                    0x01b0                  _T5CONbits = 0x1b0
                    0x01cc                  RTCCON1L = 0x1cc
                    0x01cc                  _RTCCON1L = 0x1cc
                    0x01cc                  _RTCCON1Lbits = 0x1cc
                    0x01ce                  RTCCON1H = 0x1ce
                    0x01ce                  _RTCCON1H = 0x1ce
                    0x01ce                  _RTCCON1Hbits = 0x1ce
                    0x01d0                  RTCCON2L = 0x1d0
                    0x01d0                  _RTCCON2L = 0x1d0
                    0x01d0                  _RTCCON2Lbits = 0x1d0
                    0x01d2                  RTCCON2H = 0x1d2
                    0x01d2                  _RTCCON2H = 0x1d2
                    0x01d4                  RTCCON3L = 0x1d4
                    0x01d4                  _RTCCON3L = 0x1d4
                    0x01d4                  _RTCCON3Lbits = 0x1d4
                    0x01d8                  RTCSTATL = 0x1d8
                    0x01d8                  _RTCSTATL = 0x1d8
                    0x01d8                  _RTCSTATLbits = 0x1d8
                    0x01dc                  TIMEL = 0x1dc
                    0x01dc                  _TIMEL = 0x1dc
                    0x01dc                  _TIMELbits = 0x1dc
                    0x01de                  TIMEH = 0x1de
                    0x01de                  _TIMEH = 0x1de
                    0x01de                  _TIMEHbits = 0x1de
                    0x01e0                  DATEL = 0x1e0
                    0x01e0                  _DATEL = 0x1e0
                    0x01e0                  _DATELbits = 0x1e0
                    0x01e2                  DATEH = 0x1e2
                    0x01e2                  _DATEH = 0x1e2
                    0x01e2                  _DATEHbits = 0x1e2
                    0x01e4                  ALMTIMEL = 0x1e4
                    0x01e4                  _ALMTIMEL = 0x1e4
                    0x01e4                  _ALMTIMELbits = 0x1e4
                    0x01e6                  ALMTIMEH = 0x1e6
                    0x01e6                  _ALMTIMEH = 0x1e6
                    0x01e6                  _ALMTIMEHbits = 0x1e6
                    0x01e8                  ALMDATEL = 0x1e8
                    0x01e8                  _ALMDATEL = 0x1e8
                    0x01e8                  _ALMDATELbits = 0x1e8
                    0x01ea                  ALMDATEH = 0x1ea
                    0x01ea                  _ALMDATEH = 0x1ea
                    0x01ea                  _ALMDATEHbits = 0x1ea
                    0x01ec                  TSATIMEL = 0x1ec
                    0x01ec                  _TSATIMEL = 0x1ec
                    0x01ec                  _TSATIMELbits = 0x1ec
                    0x01ee                  TSATIMEH = 0x1ee
                    0x01ee                  _TSATIMEH = 0x1ee
                    0x01ee                  _TSATIMEHbits = 0x1ee
                    0x01f0                  TSADATEL = 0x1f0
                    0x01f0                  _TSADATEL = 0x1f0
                    0x01f0                  _TSADATELbits = 0x1f0
                    0x01f2                  TSADATEH = 0x1f2
                    0x01f2                  _TSADATEH = 0x1f2
                    0x01f2                  _TSADATEHbits = 0x1f2
                    0x026c                  CCP1CON1L = 0x26c
                    0x026c                  _CCP1CON1L = 0x26c
                    0x026c                  _CCP1CON1Lbits = 0x26c
                    0x026e                  CCP1CON1H = 0x26e
                    0x026e                  _CCP1CON1H = 0x26e
                    0x026e                  _CCP1CON1Hbits = 0x26e
                    0x0270                  CCP1CON2L = 0x270
                    0x0270                  _CCP1CON2L = 0x270
                    0x0270                  _CCP1CON2Lbits = 0x270
                    0x0272                  CCP1CON2H = 0x272
                    0x0272                  _CCP1CON2H = 0x272
                    0x0272                  _CCP1CON2Hbits = 0x272
                    0x0274                  CCP1CON3L = 0x274
                    0x0274                  _CCP1CON3L = 0x274
                    0x0274                  _CCP1CON3Lbits = 0x274
                    0x0276                  CCP1CON3H = 0x276
                    0x0276                  _CCP1CON3H = 0x276
                    0x0276                  _CCP1CON3Hbits = 0x276
                    0x0278                  CCP1STAT = 0x278
                    0x0278                  _CCP1STAT = 0x278
                    0x0278                  _CCP1STATbits = 0x278
                    0x0278                  CCP1STATL = 0x278
                    0x0278                  _CCP1STATL = 0x278
                    0x0278                  _CCP1STATLbits = 0x278
                    0x027c                  CCP1TMRL = 0x27c
                    0x027c                  _CCP1TMRL = 0x27c
                    0x027e                  CCP1TMRH = 0x27e
                    0x027e                  _CCP1TMRH = 0x27e
                    0x0280                  CCP1PRL = 0x280
                    0x0280                  _CCP1PRL = 0x280
                    0x0282                  CCP1PRH = 0x282
                    0x0282                  _CCP1PRH = 0x282
                    0x0284                  CCP1RA = 0x284
                    0x0284                  _CCP1RA = 0x284
                    0x0284                  CCP1RAL = 0x284
                    0x0284                  _CCP1RAL = 0x284
                    0x0288                  CCP1RB = 0x288
                    0x0288                  _CCP1RB = 0x288
                    0x0288                  CCP1RBL = 0x288
                    0x0288                  _CCP1RBL = 0x288
                    0x028c                  CCP1BUFL = 0x28c
                    0x028c                  _CCP1BUFL = 0x28c
                    0x028e                  CCP1BUFH = 0x28e
                    0x028e                  _CCP1BUFH = 0x28e
                    0x0290                  CCP2CON1L = 0x290
                    0x0290                  _CCP2CON1L = 0x290
                    0x0290                  _CCP2CON1Lbits = 0x290
                    0x0292                  CCP2CON1H = 0x292
                    0x0292                  _CCP2CON1H = 0x292
                    0x0292                  _CCP2CON1Hbits = 0x292
                    0x0294                  CCP2CON2L = 0x294
                    0x0294                  _CCP2CON2L = 0x294
                    0x0294                  _CCP2CON2Lbits = 0x294
                    0x0296                  CCP2CON2H = 0x296
                    0x0296                  _CCP2CON2H = 0x296
                    0x0296                  _CCP2CON2Hbits = 0x296
                    0x0298                  CCP2CON3L = 0x298
                    0x0298                  _CCP2CON3L = 0x298
                    0x0298                  _CCP2CON3Lbits = 0x298
                    0x029a                  CCP2CON3H = 0x29a
                    0x029a                  _CCP2CON3H = 0x29a
                    0x029a                  _CCP2CON3Hbits = 0x29a
                    0x029c                  CCP2STAT = 0x29c
                    0x029c                  _CCP2STAT = 0x29c
                    0x029c                  _CCP2STATbits = 0x29c
                    0x029c                  CCP2STATL = 0x29c
                    0x029c                  _CCP2STATL = 0x29c
                    0x029c                  _CCP2STATLbits = 0x29c
                    0x02a0                  CCP2TMRL = 0x2a0
                    0x02a0                  _CCP2TMRL = 0x2a0
                    0x02a2                  CCP2TMRH = 0x2a2
                    0x02a2                  _CCP2TMRH = 0x2a2
                    0x02a4                  CCP2PRL = 0x2a4
                    0x02a4                  _CCP2PRL = 0x2a4
                    0x02a6                  CCP2PRH = 0x2a6
                    0x02a6                  _CCP2PRH = 0x2a6
                    0x02a8                  CCP2RA = 0x2a8
                    0x02a8                  _CCP2RA = 0x2a8
                    0x02a8                  CCP2RAL = 0x2a8
                    0x02a8                  _CCP2RAL = 0x2a8
                    0x02ac                  CCP2RB = 0x2ac
                    0x02ac                  _CCP2RB = 0x2ac
                    0x02ac                  CCP2RBL = 0x2ac
                    0x02ac                  _CCP2RBL = 0x2ac
                    0x02b0                  CCP2BUFL = 0x2b0
                    0x02b0                  _CCP2BUFL = 0x2b0
                    0x02b2                  CCP2BUFH = 0x2b2
                    0x02b2                  _CCP2BUFH = 0x2b2
                    0x02b4                  CCP3CON1L = 0x2b4
                    0x02b4                  _CCP3CON1L = 0x2b4
                    0x02b4                  _CCP3CON1Lbits = 0x2b4
                    0x02b6                  CCP3CON1H = 0x2b6
                    0x02b6                  _CCP3CON1H = 0x2b6
                    0x02b6                  _CCP3CON1Hbits = 0x2b6
                    0x02b8                  CCP3CON2L = 0x2b8
                    0x02b8                  _CCP3CON2L = 0x2b8
                    0x02b8                  _CCP3CON2Lbits = 0x2b8
                    0x02ba                  CCP3CON2H = 0x2ba
                    0x02ba                  _CCP3CON2H = 0x2ba
                    0x02ba                  _CCP3CON2Hbits = 0x2ba
                    0x02bc                  CCP3CON3L = 0x2bc
                    0x02bc                  _CCP3CON3L = 0x2bc
                    0x02bc                  _CCP3CON3Lbits = 0x2bc
                    0x02be                  CCP3CON3H = 0x2be
                    0x02be                  _CCP3CON3H = 0x2be
                    0x02be                  _CCP3CON3Hbits = 0x2be
                    0x02c0                  CCP3STAT = 0x2c0
                    0x02c0                  _CCP3STAT = 0x2c0
                    0x02c0                  _CCP3STATbits = 0x2c0
                    0x02c0                  CCP3STATL = 0x2c0
                    0x02c0                  _CCP3STATL = 0x2c0
                    0x02c0                  _CCP3STATLbits = 0x2c0
                    0x02c4                  CCP3TMRL = 0x2c4
                    0x02c4                  _CCP3TMRL = 0x2c4
                    0x02c6                  CCP3TMRH = 0x2c6
                    0x02c6                  _CCP3TMRH = 0x2c6
                    0x02c8                  CCP3PRL = 0x2c8
                    0x02c8                  _CCP3PRL = 0x2c8
                    0x02ca                  CCP3PRH = 0x2ca
                    0x02ca                  _CCP3PRH = 0x2ca
                    0x02cc                  CCP3RA = 0x2cc
                    0x02cc                  _CCP3RA = 0x2cc
                    0x02cc                  CCP3RAL = 0x2cc
                    0x02cc                  _CCP3RAL = 0x2cc
                    0x02d0                  CCP3RB = 0x2d0
                    0x02d0                  _CCP3RB = 0x2d0
                    0x02d0                  CCP3RBL = 0x2d0
                    0x02d0                  _CCP3RBL = 0x2d0
                    0x02d4                  CCP3BUFL = 0x2d4
                    0x02d4                  _CCP3BUFL = 0x2d4
                    0x02d6                  CCP3BUFH = 0x2d6
                    0x02d6                  _CCP3BUFH = 0x2d6
                    0x02e6                  CMSTAT = 0x2e6
                    0x02e6                  _CMSTAT = 0x2e6
                    0x02e6                  _CMSTATbits = 0x2e6
                    0x02e8                  CVRCON = 0x2e8
                    0x02e8                  _CVRCON = 0x2e8
                    0x02e8                  _CVRCONbits = 0x2e8
                    0x02ea                  CM1CON = 0x2ea
                    0x02ea                  _CM1CON = 0x2ea
                    0x02ea                  _CM1CONbits = 0x2ea
                    0x02ec                  CM2CON = 0x2ec
                    0x02ec                  _CM2CON = 0x2ec
                    0x02ec                  _CM2CONbits = 0x2ec
                    0x02ee                  CM3CON = 0x2ee
                    0x02ee                  _CM3CON = 0x2ee
                    0x02ee                  _CM3CONbits = 0x2ee
                    0x02f4                  ANCFG = 0x2f4
                    0x02f4                  _ANCFG = 0x2f4
                    0x02f4                  _ANCFGbits = 0x2f4
                    0x0300                  CCP4CON1L = 0x300
                    0x0300                  _CCP4CON1L = 0x300
                    0x0300                  _CCP4CON1Lbits = 0x300
                    0x0302                  CCP4CON1H = 0x302
                    0x0302                  _CCP4CON1H = 0x302
                    0x0302                  _CCP4CON1Hbits = 0x302
                    0x0304                  CCP4CON2L = 0x304
                    0x0304                  _CCP4CON2L = 0x304
                    0x0304                  _CCP4CON2Lbits = 0x304
                    0x0306                  CCP4CON2H = 0x306
                    0x0306                  _CCP4CON2H = 0x306
                    0x0306                  _CCP4CON2Hbits = 0x306
                    0x0308                  CCP4CON3L = 0x308
                    0x0308                  _CCP4CON3L = 0x308
                    0x0308                  _CCP4CON3Lbits = 0x308
                    0x030a                  CCP4CON3H = 0x30a
                    0x030a                  _CCP4CON3H = 0x30a
                    0x030a                  _CCP4CON3Hbits = 0x30a
                    0x030c                  CCP4STAT = 0x30c
                    0x030c                  _CCP4STAT = 0x30c
                    0x030c                  _CCP4STATbits = 0x30c
                    0x030c                  CCP4STATL = 0x30c
                    0x030c                  _CCP4STATL = 0x30c
                    0x030c                  _CCP4STATLbits = 0x30c
                    0x0310                  CCP4TMRL = 0x310
                    0x0310                  _CCP4TMRL = 0x310
                    0x0312                  CCP4TMRH = 0x312
                    0x0312                  _CCP4TMRH = 0x312
                    0x0314                  CCP4PRL = 0x314
                    0x0314                  _CCP4PRL = 0x314
                    0x0316                  CCP4PRH = 0x316
                    0x0316                  _CCP4PRH = 0x316
                    0x0318                  CCP4RA = 0x318
                    0x0318                  _CCP4RA = 0x318
                    0x0318                  CCP4RAL = 0x318
                    0x0318                  _CCP4RAL = 0x318
                    0x031c                  CCP4RB = 0x31c
                    0x031c                  _CCP4RB = 0x31c
                    0x031c                  CCP4RBL = 0x31c
                    0x031c                  _CCP4RBL = 0x31c
                    0x0320                  CCP4BUFL = 0x320
                    0x0320                  _CCP4BUFL = 0x320
                    0x0322                  CCP4BUFH = 0x322
                    0x0322                  _CCP4BUFH = 0x322
                    0x0324                  CCP5CON1L = 0x324
                    0x0324                  _CCP5CON1L = 0x324
                    0x0324                  _CCP5CON1Lbits = 0x324
                    0x0326                  CCP5CON1H = 0x326
                    0x0326                  _CCP5CON1H = 0x326
                    0x0326                  _CCP5CON1Hbits = 0x326
                    0x0328                  CCP5CON2L = 0x328
                    0x0328                  _CCP5CON2L = 0x328
                    0x0328                  _CCP5CON2Lbits = 0x328
                    0x032a                  CCP5CON2H = 0x32a
                    0x032a                  _CCP5CON2H = 0x32a
                    0x032a                  _CCP5CON2Hbits = 0x32a
                    0x032c                  CCP5CON3L = 0x32c
                    0x032c                  _CCP5CON3L = 0x32c
                    0x032c                  _CCP5CON3Lbits = 0x32c
                    0x032e                  CCP5CON3H = 0x32e
                    0x032e                  _CCP5CON3H = 0x32e
                    0x032e                  _CCP5CON3Hbits = 0x32e
                    0x0330                  CCP5STAT = 0x330
                    0x0330                  _CCP5STAT = 0x330
                    0x0330                  _CCP5STATbits = 0x330
                    0x0330                  CCP5STATL = 0x330
                    0x0330                  _CCP5STATL = 0x330
                    0x0330                  _CCP5STATLbits = 0x330
                    0x0334                  CCP5TMRL = 0x334
                    0x0334                  _CCP5TMRL = 0x334
                    0x0336                  CCP5TMRH = 0x336
                    0x0336                  _CCP5TMRH = 0x336
                    0x0338                  CCP5PRL = 0x338
                    0x0338                  _CCP5PRL = 0x338
                    0x033a                  CCP5PRH = 0x33a
                    0x033a                  _CCP5PRH = 0x33a
                    0x033c                  CCP5RA = 0x33c
                    0x033c                  _CCP5RA = 0x33c
                    0x033c                  CCP5RAL = 0x33c
                    0x033c                  _CCP5RAL = 0x33c
                    0x0340                  CCP5RB = 0x340
                    0x0340                  _CCP5RB = 0x340
                    0x0340                  CCP5RBL = 0x340
                    0x0340                  _CCP5RBL = 0x340
                    0x0344                  CCP5BUFL = 0x344
                    0x0344                  _CCP5BUFL = 0x344
                    0x0346                  CCP5BUFH = 0x346
                    0x0346                  _CCP5BUFH = 0x346
                    0x0398                  U1MODE = 0x398
                    0x0398                  _U1MODE = 0x398
                    0x0398                  _U1MODEbits = 0x398
                    0x039a                  U1STA = 0x39a
                    0x039a                  _U1STA = 0x39a
                    0x039a                  _U1STAbits = 0x39a
                    0x039c                  U1TXREG = 0x39c
                    0x039c                  _U1TXREG = 0x39c
                    0x039e                  U1RXREG = 0x39e
                    0x039e                  _U1RXREG = 0x39e
                    0x03a0                  U1BRG = 0x3a0
                    0x03a0                  _U1BRG = 0x3a0
                    0x03ae                  U2MODE = 0x3ae
                    0x03ae                  _U2MODE = 0x3ae
                    0x03ae                  _U2MODEbits = 0x3ae
                    0x03b0                  U2STA = 0x3b0
                    0x03b0                  _U2STA = 0x3b0
                    0x03b0                  _U2STAbits = 0x3b0
                    0x03b2                  U2TXREG = 0x3b2
                    0x03b2                  _U2TXREG = 0x3b2
                    0x03b4                  U2RXREG = 0x3b4
                    0x03b4                  _U2RXREG = 0x3b4
                    0x03b6                  U2BRG = 0x3b6
                    0x03b6                  _U2BRG = 0x3b6
                    0x03c4                  U3MODE = 0x3c4
                    0x03c4                  _U3MODE = 0x3c4
                    0x03c4                  _U3MODEbits = 0x3c4
                    0x03c6                  U3STA = 0x3c6
                    0x03c6                  _U3STA = 0x3c6
                    0x03c6                  _U3STAbits = 0x3c6
                    0x03c8                  U3TXREG = 0x3c8
                    0x03c8                  _U3TXREG = 0x3c8
                    0x03ca                  U3RXREG = 0x3ca
                    0x03ca                  _U3RXREG = 0x3ca
                    0x03cc                  U3BRG = 0x3cc
                    0x03cc                  _U3BRG = 0x3cc
                    0x03d0                  U4MODE = 0x3d0
                    0x03d0                  _U4MODE = 0x3d0
                    0x03d0                  _U4MODEbits = 0x3d0
                    0x03d2                  U4STA = 0x3d2
                    0x03d2                  _U4STA = 0x3d2
                    0x03d2                  _U4STAbits = 0x3d2
                    0x03d4                  U4TXREG = 0x3d4
                    0x03d4                  _U4TXREG = 0x3d4
                    0x03d6                  U4RXREG = 0x3d6
                    0x03d6                  _U4RXREG = 0x3d6
                    0x03d8                  U4BRG = 0x3d8
                    0x03d8                  _U4BRG = 0x3d8
                    0x03f4                  SPI1CON1 = 0x3f4
                    0x03f4                  _SPI1CON1 = 0x3f4
                    0x03f4                  _SPI1CON1bits = 0x3f4
                    0x03f4                  SPI1CON1L = 0x3f4
                    0x03f4                  _SPI1CON1L = 0x3f4
                    0x03f4                  _SPI1CON1Lbits = 0x3f4
                    0x03f6                  SPI1CON1H = 0x3f6
                    0x03f6                  _SPI1CON1H = 0x3f6
                    0x03f6                  _SPI1CON1Hbits = 0x3f6
                    0x03f6                  SPI1CON2 = 0x3f6
                    0x03f6                  _SPI1CON2 = 0x3f6
                    0x03f6                  _SPI1CON2bits = 0x3f6
                    0x03f8                  SPI1CON2L = 0x3f8
                    0x03f8                  _SPI1CON2L = 0x3f8
                    0x03f8                  _SPI1CON2Lbits = 0x3f8
                    0x03f8                  SPI1CON3 = 0x3f8
                    0x03f8                  _SPI1CON3 = 0x3f8
                    0x03f8                  _SPI1CON3bits = 0x3f8
                    0x03fc                  SPI1STATL = 0x3fc
                    0x03fc                  _SPI1STATL = 0x3fc
                    0x03fc                  _SPI1STATLbits = 0x3fc
                    0x03fe                  SPI1STATH = 0x3fe
                    0x03fe                  _SPI1STATH = 0x3fe
                    0x03fe                  _SPI1STATHbits = 0x3fe
                    0x0400                  SPI1BUFL = 0x400
                    0x0400                  _SPI1BUFL = 0x400
                    0x0400                  _SPI1BUFLbits = 0x400
                    0x0402                  SPI1BUFH = 0x402
                    0x0402                  _SPI1BUFH = 0x402
                    0x0402                  _SPI1BUFHbits = 0x402
                    0x0404                  SPI1BRGL = 0x404
                    0x0404                  _SPI1BRGL = 0x404
                    0x0404                  _SPI1BRGLbits = 0x404
                    0x0408                  SPI1IMSK1 = 0x408
                    0x0408                  _SPI1IMSK1 = 0x408
                    0x0408                  _SPI1IMSK1bits = 0x408
                    0x0408                  SPI1IMSKL = 0x408
                    0x0408                  _SPI1IMSKL = 0x408
                    0x0408                  _SPI1IMSKLbits = 0x408
                    0x040a                  SPI1IMSK2 = 0x40a
                    0x040a                  _SPI1IMSK2 = 0x40a
                    0x040a                  _SPI1IMSK2bits = 0x40a
                    0x040a                  SPI1IMSKH = 0x40a
                    0x040a                  _SPI1IMSKH = 0x40a
                    0x040a                  _SPI1IMSKHbits = 0x40a
                    0x040c                  SPI1URDTL = 0x40c
                    0x040c                  _SPI1URDTL = 0x40c
                    0x040c                  _SPI1URDTLbits = 0x40c
                    0x040e                  SPI1URDTH = 0x40e
                    0x040e                  _SPI1URDTH = 0x40e
                    0x040e                  _SPI1URDTHbits = 0x40e
                    0x0410                  SPI2CON1 = 0x410
                    0x0410                  _SPI2CON1 = 0x410
                    0x0410                  _SPI2CON1bits = 0x410
                    0x0410                  SPI2CON1L = 0x410
                    0x0410                  _SPI2CON1L = 0x410
                    0x0410                  _SPI2CON1Lbits = 0x410
                    0x0412                  SPI2CON1H = 0x412
                    0x0412                  _SPI2CON1H = 0x412
                    0x0412                  _SPI2CON1Hbits = 0x412
                    0x0412                  SPI2CON2 = 0x412
                    0x0412                  _SPI2CON2 = 0x412
                    0x0412                  _SPI2CON2bits = 0x412
                    0x0414                  SPI2CON2L = 0x414
                    0x0414                  _SPI2CON2L = 0x414
                    0x0414                  _SPI2CON2Lbits = 0x414
                    0x0414                  SPI2CON3 = 0x414
                    0x0414                  _SPI2CON3 = 0x414
                    0x0414                  _SPI2CON3bits = 0x414
                    0x0418                  SPI2STATL = 0x418
                    0x0418                  _SPI2STATL = 0x418
                    0x0418                  _SPI2STATLbits = 0x418
                    0x041a                  SPI2STATH = 0x41a
                    0x041a                  _SPI2STATH = 0x41a
                    0x041a                  _SPI2STATHbits = 0x41a
                    0x041c                  SPI2BUFL = 0x41c
                    0x041c                  _SPI2BUFL = 0x41c
                    0x041c                  _SPI2BUFLbits = 0x41c
                    0x041e                  SPI2BUFH = 0x41e
                    0x041e                  _SPI2BUFH = 0x41e
                    0x041e                  _SPI2BUFHbits = 0x41e
                    0x0420                  SPI2BRGL = 0x420
                    0x0420                  _SPI2BRGL = 0x420
                    0x0420                  _SPI2BRGLbits = 0x420
                    0x0424                  SPI2IMSK1 = 0x424
                    0x0424                  _SPI2IMSK1 = 0x424
                    0x0424                  _SPI2IMSK1bits = 0x424
                    0x0424                  SPI2IMSKL = 0x424
                    0x0424                  _SPI2IMSKL = 0x424
                    0x0424                  _SPI2IMSKLbits = 0x424
                    0x0426                  SPI2IMSK2 = 0x426
                    0x0426                  _SPI2IMSK2 = 0x426
                    0x0426                  _SPI2IMSK2bits = 0x426
                    0x0426                  SPI2IMSKH = 0x426
                    0x0426                  _SPI2IMSKH = 0x426
                    0x0426                  _SPI2IMSKHbits = 0x426
                    0x0428                  SPI2URDTL = 0x428
                    0x0428                  _SPI2URDTL = 0x428
                    0x0428                  _SPI2URDTLbits = 0x428
                    0x042a                  SPI2URDTH = 0x42a
                    0x042a                  _SPI2URDTH = 0x42a
                    0x042a                  _SPI2URDTHbits = 0x42a
                    0x0464                  CLC1CONL = 0x464
                    0x0464                  _CLC1CONL = 0x464
                    0x0464                  _CLC1CONLbits = 0x464
                    0x0466                  CLC1CONH = 0x466
                    0x0466                  _CLC1CONH = 0x466
                    0x0466                  _CLC1CONHbits = 0x466
                    0x0468                  CLC1SEL = 0x468
                    0x0468                  _CLC1SEL = 0x468
                    0x0468                  _CLC1SELbits = 0x468
                    0x0468                  CLC1SELL = 0x468
                    0x0468                  _CLC1SELL = 0x468
                    0x0468                  _CLC1SELLbits = 0x468
                    0x046c                  CLC1GLSL = 0x46c
                    0x046c                  _CLC1GLSL = 0x46c
                    0x046c                  _CLC1GLSLbits = 0x46c
                    0x046e                  CLC1GLSH = 0x46e
                    0x046e                  _CLC1GLSH = 0x46e
                    0x046e                  _CLC1GLSHbits = 0x46e
                    0x0470                  CLC2CONL = 0x470
                    0x0470                  _CLC2CONL = 0x470
                    0x0470                  _CLC2CONLbits = 0x470
                    0x0472                  CLC2CONH = 0x472
                    0x0472                  _CLC2CONH = 0x472
                    0x0472                  _CLC2CONHbits = 0x472
                    0x0474                  CLC2SEL = 0x474
                    0x0474                  _CLC2SEL = 0x474
                    0x0474                  _CLC2SELbits = 0x474
                    0x0474                  CLC2SELL = 0x474
                    0x0474                  _CLC2SELL = 0x474
                    0x0474                  _CLC2SELLbits = 0x474
                    0x0478                  CLC2GLSL = 0x478
                    0x0478                  _CLC2GLSL = 0x478
                    0x0478                  _CLC2GLSLbits = 0x478
                    0x047a                  CLC2GLSH = 0x47a
                    0x047a                  _CLC2GLSH = 0x47a
                    0x047a                  _CLC2GLSHbits = 0x47a
                    0x047c                  CLC3CONL = 0x47c
                    0x047c                  _CLC3CONL = 0x47c
                    0x047c                  _CLC3CONLbits = 0x47c
                    0x047e                  CLC3CONH = 0x47e
                    0x047e                  _CLC3CONH = 0x47e
                    0x047e                  _CLC3CONHbits = 0x47e
                    0x0480                  CLC3SEL = 0x480
                    0x0480                  _CLC3SEL = 0x480
                    0x0480                  _CLC3SELbits = 0x480
                    0x0480                  CLC3SELL = 0x480
                    0x0480                  _CLC3SELL = 0x480
                    0x0480                  _CLC3SELLbits = 0x480
                    0x0484                  CLC3GLSL = 0x484
                    0x0484                  _CLC3GLSL = 0x484
                    0x0484                  _CLC3GLSLbits = 0x484
                    0x0486                  CLC3GLSH = 0x486
                    0x0486                  _CLC3GLSH = 0x486
                    0x0486                  _CLC3GLSHbits = 0x486
                    0x0488                  CLC4CONL = 0x488
                    0x0488                  _CLC4CONL = 0x488
                    0x0488                  _CLC4CONLbits = 0x488
                    0x048a                  CLC4CONH = 0x48a
                    0x048a                  _CLC4CONH = 0x48a
                    0x048a                  _CLC4CONHbits = 0x48a
                    0x048c                  CLC4SEL = 0x48c
                    0x048c                  _CLC4SEL = 0x48c
                    0x048c                  _CLC4SELbits = 0x48c
                    0x048c                  CLC4SELL = 0x48c
                    0x048c                  _CLC4SELL = 0x48c
                    0x048c                  _CLC4SELLbits = 0x48c
                    0x0490                  CLC4GLSL = 0x490
                    0x0490                  _CLC4GLSL = 0x490
                    0x0490                  _CLC4GLSLbits = 0x490
                    0x0492                  CLC4GLSH = 0x492
                    0x0492                  _CLC4GLSH = 0x492
                    0x0492                  _CLC4GLSHbits = 0x492
                    0x0494                  I2C1RCV = 0x494
                    0x0494                  _I2C1RCV = 0x494
                    0x0494                  _I2C1RCVbits = 0x494
                    0x0496                  I2C1TRN = 0x496
                    0x0496                  _I2C1TRN = 0x496
                    0x0496                  _I2C1TRNbits = 0x496
                    0x0498                  I2C1BRG = 0x498
                    0x0498                  _I2C1BRG = 0x498
                    0x049a                  I2C1CON1 = 0x49a
                    0x049a                  _I2C1CON1 = 0x49a
                    0x049a                  _I2C1CON1bits = 0x49a
                    0x049a                  I2C1CONL = 0x49a
                    0x049a                  _I2C1CONL = 0x49a
                    0x049a                  _I2C1CONLbits = 0x49a
                    0x049c                  I2C1CON2 = 0x49c
                    0x049c                  _I2C1CON2 = 0x49c
                    0x049c                  _I2C1CON2bits = 0x49c
                    0x049c                  I2C1CONH = 0x49c
                    0x049c                  _I2C1CONH = 0x49c
                    0x049c                  _I2C1CONHbits = 0x49c
                    0x049e                  I2C1STAT = 0x49e
                    0x049e                  _I2C1STAT = 0x49e
                    0x049e                  _I2C1STATbits = 0x49e
                    0x04a0                  I2C1ADD = 0x4a0
                    0x04a0                  _I2C1ADD = 0x4a0
                    0x04a0                  _I2C1ADDbits = 0x4a0
                    0x04a2                  I2C1MSK = 0x4a2
                    0x04a2                  _I2C1MSK = 0x4a2
                    0x04a2                  _I2C1MSKbits = 0x4a2
                    0x04a4                  I2C2RCV = 0x4a4
                    0x04a4                  _I2C2RCV = 0x4a4
                    0x04a4                  _I2C2RCVbits = 0x4a4
                    0x04a6                  I2C2TRN = 0x4a6
                    0x04a6                  _I2C2TRN = 0x4a6
                    0x04a6                  _I2C2TRNbits = 0x4a6
                    0x04a8                  I2C2BRG = 0x4a8
                    0x04a8                  _I2C2BRG = 0x4a8
                    0x04aa                  I2C2CON1 = 0x4aa
                    0x04aa                  _I2C2CON1 = 0x4aa
                    0x04aa                  _I2C2CON1bits = 0x4aa
                    0x04aa                  I2C2CONL = 0x4aa
                    0x04aa                  _I2C2CONL = 0x4aa
                    0x04aa                  _I2C2CONLbits = 0x4aa
                    0x04ac                  I2C2CON2 = 0x4ac
                    0x04ac                  _I2C2CON2 = 0x4ac
                    0x04ac                  _I2C2CON2bits = 0x4ac
                    0x04ac                  I2C2CONH = 0x4ac
                    0x04ac                  _I2C2CONH = 0x4ac
                    0x04ac                  _I2C2CONHbits = 0x4ac
                    0x04ae                  I2C2STAT = 0x4ae
                    0x04ae                  _I2C2STAT = 0x4ae
                    0x04ae                  _I2C2STATbits = 0x4ae
                    0x04b0                  I2C2ADD = 0x4b0
                    0x04b0                  _I2C2ADD = 0x4b0
                    0x04b0                  _I2C2ADDbits = 0x4b0
                    0x04b2                  I2C2MSK = 0x4b2
                    0x04b2                  _I2C2MSK = 0x4b2
                    0x04b2                  _I2C2MSKbits = 0x4b2
                    0x04c4                  DMACON = 0x4c4
                    0x04c4                  _DMACON = 0x4c4
                    0x04c4                  _DMACONbits = 0x4c4
                    0x04c6                  DMABUF = 0x4c6
                    0x04c6                  _DMABUF = 0x4c6
                    0x04c8                  DMAL = 0x4c8
                    0x04c8                  _DMAL = 0x4c8
                    0x04ca                  DMAH = 0x4ca
                    0x04ca                  _DMAH = 0x4ca
                    0x04cc                  DMACH0 = 0x4cc
                    0x04cc                  _DMACH0 = 0x4cc
                    0x04cc                  _DMACH0bits = 0x4cc
                    0x04ce                  DMAINT0 = 0x4ce
                    0x04ce                  _DMAINT0 = 0x4ce
                    0x04ce                  _DMAINT0bits = 0x4ce
                    0x04d0                  DMASRC0 = 0x4d0
                    0x04d0                  _DMASRC0 = 0x4d0
                    0x04d2                  DMADST0 = 0x4d2
                    0x04d2                  _DMADST0 = 0x4d2
                    0x04d4                  DMACNT0 = 0x4d4
                    0x04d4                  _DMACNT0 = 0x4d4
                    0x04d6                  DMACH1 = 0x4d6
                    0x04d6                  _DMACH1 = 0x4d6
                    0x04d6                  _DMACH1bits = 0x4d6
                    0x04d8                  DMAINT1 = 0x4d8
                    0x04d8                  _DMAINT1 = 0x4d8
                    0x04d8                  _DMAINT1bits = 0x4d8
                    0x04da                  DMASRC1 = 0x4da
                    0x04da                  _DMASRC1 = 0x4da
                    0x04dc                  DMADST1 = 0x4dc
                    0x04dc                  _DMADST1 = 0x4dc
                    0x04de                  DMACNT1 = 0x4de
                    0x04de                  _DMACNT1 = 0x4de
                    0x04e0                  DMACH2 = 0x4e0
                    0x04e0                  _DMACH2 = 0x4e0
                    0x04e0                  _DMACH2bits = 0x4e0
                    0x04e2                  DMAINT2 = 0x4e2
                    0x04e2                  _DMAINT2 = 0x4e2
                    0x04e2                  _DMAINT2bits = 0x4e2
                    0x04e4                  DMASRC2 = 0x4e4
                    0x04e4                  _DMASRC2 = 0x4e4
                    0x04e6                  DMADST2 = 0x4e6
                    0x04e6                  _DMADST2 = 0x4e6
                    0x04e8                  DMACNT2 = 0x4e8
                    0x04e8                  _DMACNT2 = 0x4e8
                    0x04ea                  DMACH3 = 0x4ea
                    0x04ea                  _DMACH3 = 0x4ea
                    0x04ea                  _DMACH3bits = 0x4ea
                    0x04ec                  DMAINT3 = 0x4ec
                    0x04ec                  _DMAINT3 = 0x4ec
                    0x04ec                  _DMAINT3bits = 0x4ec
                    0x04ee                  DMASRC3 = 0x4ee
                    0x04ee                  _DMASRC3 = 0x4ee
                    0x04f0                  DMADST3 = 0x4f0
                    0x04f0                  _DMADST3 = 0x4f0
                    0x04f2                  DMACNT3 = 0x4f2
                    0x04f2                  _DMACNT3 = 0x4f2
                    0x04f4                  DMACH4 = 0x4f4
                    0x04f4                  _DMACH4 = 0x4f4
                    0x04f4                  _DMACH4bits = 0x4f4
                    0x04f6                  DMAINT4 = 0x4f6
                    0x04f6                  _DMAINT4 = 0x4f6
                    0x04f6                  _DMAINT4bits = 0x4f6
                    0x04f8                  DMASRC4 = 0x4f8
                    0x04f8                  _DMASRC4 = 0x4f8
                    0x04fa                  DMADST4 = 0x4fa
                    0x04fa                  _DMADST4 = 0x4fa
                    0x04fc                  DMACNT4 = 0x4fc
                    0x04fc                  _DMACNT4 = 0x4fc
                    0x04fe                  DMACH5 = 0x4fe
                    0x04fe                  _DMACH5 = 0x4fe
                    0x04fe                  _DMACH5bits = 0x4fe
                    0x0500                  DMAINT5 = 0x500
                    0x0500                  _DMAINT5 = 0x500
                    0x0500                  _DMAINT5bits = 0x500
                    0x0502                  DMASRC5 = 0x502
                    0x0502                  _DMASRC5 = 0x502
                    0x0504                  DMADST5 = 0x504
                    0x0504                  _DMADST5 = 0x504
                    0x0506                  DMACNT5 = 0x506
                    0x0506                  _DMACNT5 = 0x506
                    0x0540                  LCDCON = 0x540
                    0x0540                  _LCDCON = 0x540
                    0x0540                  _LCDCONbits = 0x540
                    0x0542                  LCDREF = 0x542
                    0x0542                  _LCDREF = 0x542
                    0x0542                  _LCDREFbits = 0x542
                    0x0544                  LCDPS = 0x544
                    0x0544                  _LCDPS = 0x544
                    0x0544                  _LCDPSbits = 0x544
                    0x0546                  LCDDATA0 = 0x546
                    0x0546                  _LCDDATA0 = 0x546
                    0x0546                  _LCDDATA0bits = 0x546
                    0x0548                  LCDDATA1 = 0x548
                    0x0548                  _LCDDATA1 = 0x548
                    0x0548                  _LCDDATA1bits = 0x548
                    0x054a                  LCDDATA2 = 0x54a
                    0x054a                  _LCDDATA2 = 0x54a
                    0x054a                  _LCDDATA2bits = 0x54a
                    0x054c                  LCDDATA3 = 0x54c
                    0x054c                  _LCDDATA3 = 0x54c
                    0x054c                  _LCDDATA3bits = 0x54c
                    0x054e                  LCDDATA4 = 0x54e
                    0x054e                  _LCDDATA4 = 0x54e
                    0x054e                  _LCDDATA4bits = 0x54e
                    0x0550                  LCDDATA5 = 0x550
                    0x0550                  _LCDDATA5 = 0x550
                    0x0550                  _LCDDATA5bits = 0x550
                    0x0552                  LCDDATA6 = 0x552
                    0x0552                  _LCDDATA6 = 0x552
                    0x0552                  _LCDDATA6bits = 0x552
                    0x0554                  LCDDATA7 = 0x554
                    0x0554                  _LCDDATA7 = 0x554
                    0x0554                  _LCDDATA7bits = 0x554
                    0x0556                  LCDDATA8 = 0x556
                    0x0556                  _LCDDATA8 = 0x556
                    0x0556                  _LCDDATA8bits = 0x556
                    0x0558                  LCDDATA9 = 0x558
                    0x0558                  _LCDDATA9 = 0x558
                    0x0558                  _LCDDATA9bits = 0x558
                    0x055a                  LCDDATA10 = 0x55a
                    0x055a                  _LCDDATA10 = 0x55a
                    0x055a                  _LCDDATA10bits = 0x55a
                    0x055c                  LCDDATA11 = 0x55c
                    0x055c                  _LCDDATA11 = 0x55c
                    0x055c                  _LCDDATA11bits = 0x55c
                    0x055e                  LCDDATA12 = 0x55e
                    0x055e                  _LCDDATA12 = 0x55e
                    0x055e                  _LCDDATA12bits = 0x55e
                    0x0560                  LCDDATA13 = 0x560
                    0x0560                  _LCDDATA13 = 0x560
                    0x0560                  _LCDDATA13bits = 0x560
                    0x0562                  LCDDATA14 = 0x562
                    0x0562                  _LCDDATA14 = 0x562
                    0x0562                  _LCDDATA14bits = 0x562
                    0x0564                  LCDDATA15 = 0x564
                    0x0564                  _LCDDATA15 = 0x564
                    0x0564                  _LCDDATA15bits = 0x564
                    0x0566                  LCDDATA16 = 0x566
                    0x0566                  _LCDDATA16 = 0x566
                    0x0566                  _LCDDATA16bits = 0x566
                    0x0568                  LCDDATA17 = 0x568
                    0x0568                  _LCDDATA17 = 0x568
                    0x0568                  _LCDDATA17bits = 0x568
                    0x056a                  LCDDATA18 = 0x56a
                    0x056a                  _LCDDATA18 = 0x56a
                    0x056a                  _LCDDATA18bits = 0x56a
                    0x056c                  LCDDATA19 = 0x56c
                    0x056c                  _LCDDATA19 = 0x56c
                    0x056c                  _LCDDATA19bits = 0x56c
                    0x056e                  LCDDATA20 = 0x56e
                    0x056e                  _LCDDATA20 = 0x56e
                    0x056e                  _LCDDATA20bits = 0x56e
                    0x0570                  LCDDATA21 = 0x570
                    0x0570                  _LCDDATA21 = 0x570
                    0x0570                  _LCDDATA21bits = 0x570
                    0x0572                  LCDDATA22 = 0x572
                    0x0572                  _LCDDATA22 = 0x572
                    0x0572                  _LCDDATA22bits = 0x572
                    0x0574                  LCDDATA23 = 0x574
                    0x0574                  _LCDDATA23 = 0x574
                    0x0574                  _LCDDATA23bits = 0x574
                    0x0576                  LCDDATA24 = 0x576
                    0x0576                  _LCDDATA24 = 0x576
                    0x0576                  _LCDDATA24bits = 0x576
                    0x0578                  LCDDATA25 = 0x578
                    0x0578                  _LCDDATA25 = 0x578
                    0x0578                  _LCDDATA25bits = 0x578
                    0x057a                  LCDDATA26 = 0x57a
                    0x057a                  _LCDDATA26 = 0x57a
                    0x057a                  _LCDDATA26bits = 0x57a
                    0x057c                  LCDDATA27 = 0x57c
                    0x057c                  _LCDDATA27 = 0x57c
                    0x057c                  _LCDDATA27bits = 0x57c
                    0x057e                  LCDDATA28 = 0x57e
                    0x057e                  _LCDDATA28 = 0x57e
                    0x057e                  _LCDDATA28bits = 0x57e
                    0x0580                  LCDDATA29 = 0x580
                    0x0580                  _LCDDATA29 = 0x580
                    0x0580                  _LCDDATA29bits = 0x580
                    0x0582                  LCDDATA30 = 0x582
                    0x0582                  _LCDDATA30 = 0x582
                    0x0582                  _LCDDATA30bits = 0x582
                    0x0584                  LCDDATA31 = 0x584
                    0x0584                  _LCDDATA31 = 0x584
                    0x0584                  _LCDDATA31bits = 0x584
                    0x0586                  LCDSE0 = 0x586
                    0x0586                  _LCDSE0 = 0x586
                    0x0586                  _LCDSE0bits = 0x586
                    0x0588                  LCDSE1 = 0x588
                    0x0588                  _LCDSE1 = 0x588
                    0x0588                  _LCDSE1bits = 0x588
                    0x058a                  LCDSE2 = 0x58a
                    0x058a                  _LCDSE2 = 0x58a
                    0x058a                  _LCDSE2bits = 0x58a
                    0x058c                  LCDSE3 = 0x58c
                    0x058c                  _LCDSE3 = 0x58c
                    0x058c                  _LCDSE3bits = 0x58c
                    0x058e                  LCDREG = 0x58e
                    0x058e                  _LCDREG = 0x58e
                    0x058e                  _LCDREGbits = 0x58e
                    0x0590                  LCDACTRL = 0x590
                    0x0590                  _LCDACTRL = 0x590
                    0x0590                  _LCDACTRLbits = 0x590
                    0x0592                  LCDASTAT = 0x592
                    0x0592                  _LCDASTAT = 0x592
                    0x0592                  _LCDASTATbits = 0x592
                    0x0594                  LCDFC0 = 0x594
                    0x0594                  _LCDFC0 = 0x594
                    0x0594                  _LCDFC0bits = 0x594
                    0x0596                  LCDFC1 = 0x596
                    0x0596                  _LCDFC1 = 0x596
                    0x0596                  _LCDFC1bits = 0x596
                    0x0598                  LCDFC2 = 0x598
                    0x0598                  _LCDFC2 = 0x598
                    0x0598                  _LCDFC2bits = 0x598
                    0x059a                  LCDTEVNT = 0x59a
                    0x059a                  _LCDTEVNT = 0x59a
                    0x059a                  _LCDTEVNTbits = 0x59a
                    0x059c                  LCDSDATA0 = 0x59c
                    0x059c                  _LCDSDATA0 = 0x59c
                    0x059c                  _LCDSDATA0bits = 0x59c
                    0x059e                  LCDSDATA1 = 0x59e
                    0x059e                  _LCDSDATA1 = 0x59e
                    0x059e                  _LCDSDATA1bits = 0x59e
                    0x05a0                  LCDSDATA2 = 0x5a0
                    0x05a0                  _LCDSDATA2 = 0x5a0
                    0x05a0                  _LCDSDATA2bits = 0x5a0
                    0x05a2                  LCDSDATA3 = 0x5a2
                    0x05a2                  _LCDSDATA3 = 0x5a2
                    0x05a2                  _LCDSDATA3bits = 0x5a2
                    0x05a4                  LCDSDATA4 = 0x5a4
                    0x05a4                  _LCDSDATA4 = 0x5a4
                    0x05a4                  _LCDSDATA4bits = 0x5a4
                    0x05a6                  LCDSDATA5 = 0x5a6
                    0x05a6                  _LCDSDATA5 = 0x5a6
                    0x05a6                  _LCDSDATA5bits = 0x5a6
                    0x05a8                  LCDSDATA6 = 0x5a8
                    0x05a8                  _LCDSDATA6 = 0x5a8
                    0x05a8                  _LCDSDATA6bits = 0x5a8
                    0x05aa                  LCDSDATA7 = 0x5aa
                    0x05aa                  _LCDSDATA7 = 0x5aa
                    0x05aa                  _LCDSDATA7bits = 0x5aa
                    0x05ac                  LCDSDATA8 = 0x5ac
                    0x05ac                  _LCDSDATA8 = 0x5ac
                    0x05ac                  _LCDSDATA8bits = 0x5ac
                    0x05ae                  LCDSDATA9 = 0x5ae
                    0x05ae                  _LCDSDATA9 = 0x5ae
                    0x05ae                  _LCDSDATA9bits = 0x5ae
                    0x05b0                  LCDSDATA10 = 0x5b0
                    0x05b0                  _LCDSDATA10 = 0x5b0
                    0x05b0                  _LCDSDATA10bits = 0x5b0
                    0x05b2                  LCDSDATA11 = 0x5b2
                    0x05b2                  _LCDSDATA11 = 0x5b2
                    0x05b2                  _LCDSDATA11bits = 0x5b2
                    0x05b4                  LCDSDATA12 = 0x5b4
                    0x05b4                  _LCDSDATA12 = 0x5b4
                    0x05b4                  _LCDSDATA12bits = 0x5b4
                    0x05b6                  LCDSDATA13 = 0x5b6
                    0x05b6                  _LCDSDATA13 = 0x5b6
                    0x05b6                  _LCDSDATA13bits = 0x5b6
                    0x05b8                  LCDSDATA14 = 0x5b8
                    0x05b8                  _LCDSDATA14 = 0x5b8
                    0x05b8                  _LCDSDATA14bits = 0x5b8
                    0x05ba                  LCDSDATA15 = 0x5ba
                    0x05ba                  _LCDSDATA15 = 0x5ba
                    0x05ba                  _LCDSDATA15bits = 0x5ba
                    0x05bc                  LCDSDATA16 = 0x5bc
                    0x05bc                  _LCDSDATA16 = 0x5bc
                    0x05bc                  _LCDSDATA16bits = 0x5bc
                    0x05be                  LCDSDATA17 = 0x5be
                    0x05be                  _LCDSDATA17 = 0x5be
                    0x05be                  _LCDSDATA17bits = 0x5be
                    0x05c0                  LCDSDATA18 = 0x5c0
                    0x05c0                  _LCDSDATA18 = 0x5c0
                    0x05c0                  _LCDSDATA18bits = 0x5c0
                    0x05c2                  LCDSDATA19 = 0x5c2
                    0x05c2                  _LCDSDATA19 = 0x5c2
                    0x05c2                  _LCDSDATA19bits = 0x5c2
                    0x05c4                  LCDSDATA20 = 0x5c4
                    0x05c4                  _LCDSDATA20 = 0x5c4
                    0x05c4                  _LCDSDATA20bits = 0x5c4
                    0x05c6                  LCDSDATA21 = 0x5c6
                    0x05c6                  _LCDSDATA21 = 0x5c6
                    0x05c6                  _LCDSDATA21bits = 0x5c6
                    0x05c8                  LCDSDATA22 = 0x5c8
                    0x05c8                  _LCDSDATA22 = 0x5c8
                    0x05c8                  _LCDSDATA22bits = 0x5c8
                    0x05ca                  LCDSDATA23 = 0x5ca
                    0x05ca                  _LCDSDATA23 = 0x5ca
                    0x05ca                  _LCDSDATA23bits = 0x5ca
                    0x05cc                  LCDSDATA24 = 0x5cc
                    0x05cc                  _LCDSDATA24 = 0x5cc
                    0x05cc                  _LCDSDATA24bits = 0x5cc
                    0x05ce                  LCDSDATA25 = 0x5ce
                    0x05ce                  _LCDSDATA25 = 0x5ce
                    0x05ce                  _LCDSDATA25bits = 0x5ce
                    0x05d0                  LCDSDATA26 = 0x5d0
                    0x05d0                  _LCDSDATA26 = 0x5d0
                    0x05d0                  _LCDSDATA26bits = 0x5d0
                    0x05d2                  LCDSDATA27 = 0x5d2
                    0x05d2                  _LCDSDATA27 = 0x5d2
                    0x05d2                  _LCDSDATA27bits = 0x5d2
                    0x05d4                  LCDSDATA28 = 0x5d4
                    0x05d4                  _LCDSDATA28 = 0x5d4
                    0x05d4                  _LCDSDATA28bits = 0x5d4
                    0x05d6                  LCDSDATA29 = 0x5d6
                    0x05d6                  _LCDSDATA29 = 0x5d6
                    0x05d6                  _LCDSDATA29bits = 0x5d6
                    0x05d8                  LCDSDATA30 = 0x5d8
                    0x05d8                  _LCDSDATA30 = 0x5d8
                    0x05d8                  _LCDSDATA30bits = 0x5d8
                    0x05da                  LCDSDATA31 = 0x5da
                    0x05da                  _LCDSDATA31 = 0x5da
                    0x05da                  _LCDSDATA31bits = 0x5da
                    0x065c                  PADCON = 0x65c
                    0x065c                  _PADCON = 0x65c
                    0x065c                  _PADCONbits = 0x65c
                    0x065e                  IOCSTAT = 0x65e
                    0x065e                  _IOCSTAT = 0x65e
                    0x065e                  _IOCSTATbits = 0x65e
                    0x0660                  TRISA = 0x660
                    0x0660                  _TRISA = 0x660
                    0x0660                  _TRISAbits = 0x660
                    0x0662                  PORTA = 0x662
                    0x0662                  _PORTA = 0x662
                    0x0662                  _PORTAbits = 0x662
                    0x0664                  LATA = 0x664
                    0x0664                  _LATA = 0x664
                    0x0664                  _LATAbits = 0x664
                    0x0666                  ODCA = 0x666
                    0x0666                  _ODCA = 0x666
                    0x0666                  _ODCAbits = 0x666
                    0x0668                  ANSA = 0x668
                    0x0668                  _ANSA = 0x668
                    0x0668                  _ANSAbits = 0x668
                    0x0668                  ANSELA = 0x668
                    0x0668                  _ANSELA = 0x668
                    0x0668                  _ANSELAbits = 0x668
                    0x066a                  IOCPA = 0x66a
                    0x066a                  _IOCPA = 0x66a
                    0x066a                  _IOCPAbits = 0x66a
                    0x066c                  IOCNA = 0x66c
                    0x066c                  _IOCNA = 0x66c
                    0x066c                  _IOCNAbits = 0x66c
                    0x066e                  IOCFA = 0x66e
                    0x066e                  _IOCFA = 0x66e
                    0x066e                  _IOCFAbits = 0x66e
                    0x0670                  CNPUA = 0x670
                    0x0670                  _CNPUA = 0x670
                    0x0670                  _CNPUAbits = 0x670
                    0x0670                  IOCPUA = 0x670
                    0x0670                  _IOCPUA = 0x670
                    0x0670                  _IOCPUAbits = 0x670
                    0x0672                  CNPDA = 0x672
                    0x0672                  _CNPDA = 0x672
                    0x0672                  _CNPDAbits = 0x672
                    0x0672                  IOCPDA = 0x672
                    0x0672                  _IOCPDA = 0x672
                    0x0672                  _IOCPDAbits = 0x672
                    0x0674                  TRISB = 0x674
                    0x0674                  _TRISB = 0x674
                    0x0674                  _TRISBbits = 0x674
                    0x0676                  PORTB = 0x676
                    0x0676                  _PORTB = 0x676
                    0x0676                  _PORTBbits = 0x676
                    0x0678                  LATB = 0x678
                    0x0678                  _LATB = 0x678
                    0x0678                  _LATBbits = 0x678
                    0x067a                  ODCB = 0x67a
                    0x067a                  _ODCB = 0x67a
                    0x067a                  _ODCBbits = 0x67a
                    0x067c                  ANSB = 0x67c
                    0x067c                  _ANSB = 0x67c
                    0x067c                  _ANSBbits = 0x67c
                    0x067c                  ANSELB = 0x67c
                    0x067c                  _ANSELB = 0x67c
                    0x067c                  _ANSELBbits = 0x67c
                    0x067e                  IOCPB = 0x67e
                    0x067e                  _IOCPB = 0x67e
                    0x067e                  _IOCPBbits = 0x67e
                    0x0680                  IOCNB = 0x680
                    0x0680                  _IOCNB = 0x680
                    0x0680                  _IOCNBbits = 0x680
                    0x0682                  IOCFB = 0x682
                    0x0682                  _IOCFB = 0x682
                    0x0682                  _IOCFBbits = 0x682
                    0x0684                  CNPUB = 0x684
                    0x0684                  _CNPUB = 0x684
                    0x0684                  _CNPUBbits = 0x684
                    0x0684                  IOCPUB = 0x684
                    0x0684                  _IOCPUB = 0x684
                    0x0684                  _IOCPUBbits = 0x684
                    0x0686                  CNPDB = 0x686
                    0x0686                  _CNPDB = 0x686
                    0x0686                  _CNPDBbits = 0x686
                    0x0686                  IOCPDB = 0x686
                    0x0686                  _IOCPDB = 0x686
                    0x0686                  _IOCPDBbits = 0x686
                    0x0688                  TRISC = 0x688
                    0x0688                  _TRISC = 0x688
                    0x0688                  _TRISCbits = 0x688
                    0x068a                  PORTC = 0x68a
                    0x068a                  _PORTC = 0x68a
                    0x068a                  _PORTCbits = 0x68a
                    0x068c                  LATC = 0x68c
                    0x068c                  _LATC = 0x68c
                    0x068c                  _LATCbits = 0x68c
                    0x068e                  ODCC = 0x68e
                    0x068e                  _ODCC = 0x68e
                    0x068e                  _ODCCbits = 0x68e
                    0x0690                  ANSC = 0x690
                    0x0690                  _ANSC = 0x690
                    0x0690                  _ANSCbits = 0x690
                    0x0690                  ANSELC = 0x690
                    0x0690                  _ANSELC = 0x690
                    0x0690                  _ANSELCbits = 0x690
                    0x0692                  IOCPC = 0x692
                    0x0692                  _IOCPC = 0x692
                    0x0692                  _IOCPCbits = 0x692
                    0x0694                  IOCNC = 0x694
                    0x0694                  _IOCNC = 0x694
                    0x0694                  _IOCNCbits = 0x694
                    0x0696                  IOCFC = 0x696
                    0x0696                  _IOCFC = 0x696
                    0x0696                  _IOCFCbits = 0x696
                    0x0698                  CNPUC = 0x698
                    0x0698                  _CNPUC = 0x698
                    0x0698                  _CNPUCbits = 0x698
                    0x0698                  IOCPUC = 0x698
                    0x0698                  _IOCPUC = 0x698
                    0x0698                  _IOCPUCbits = 0x698
                    0x069a                  CNPDC = 0x69a
                    0x069a                  _CNPDC = 0x69a
                    0x069a                  _CNPDCbits = 0x69a
                    0x069a                  IOCPDC = 0x69a
                    0x069a                  _IOCPDC = 0x69a
                    0x069a                  _IOCPDCbits = 0x69a
                    0x069c                  TRISD = 0x69c
                    0x069c                  _TRISD = 0x69c
                    0x069c                  _TRISDbits = 0x69c
                    0x069e                  PORTD = 0x69e
                    0x069e                  _PORTD = 0x69e
                    0x069e                  _PORTDbits = 0x69e
                    0x06a0                  LATD = 0x6a0
                    0x06a0                  _LATD = 0x6a0
                    0x06a0                  _LATDbits = 0x6a0
                    0x06a2                  ODCD = 0x6a2
                    0x06a2                  _ODCD = 0x6a2
                    0x06a2                  _ODCDbits = 0x6a2
                    0x06a4                  ANSD = 0x6a4
                    0x06a4                  _ANSD = 0x6a4
                    0x06a4                  _ANSDbits = 0x6a4
                    0x06a4                  ANSELD = 0x6a4
                    0x06a4                  _ANSELD = 0x6a4
                    0x06a4                  _ANSELDbits = 0x6a4
                    0x06a6                  IOCPD = 0x6a6
                    0x06a6                  _IOCPD = 0x6a6
                    0x06a6                  _IOCPDbits = 0x6a6
                    0x06a8                  IOCND = 0x6a8
                    0x06a8                  _IOCND = 0x6a8
                    0x06a8                  _IOCNDbits = 0x6a8
                    0x06aa                  IOCFD = 0x6aa
                    0x06aa                  _IOCFD = 0x6aa
                    0x06aa                  _IOCFDbits = 0x6aa
                    0x06ac                  CNPUD = 0x6ac
                    0x06ac                  _CNPUD = 0x6ac
                    0x06ac                  _CNPUDbits = 0x6ac
                    0x06ac                  IOCPUD = 0x6ac
                    0x06ac                  _IOCPUD = 0x6ac
                    0x06ac                  _IOCPUDbits = 0x6ac
                    0x06ae                  CNPDD = 0x6ae
                    0x06ae                  _CNPDD = 0x6ae
                    0x06ae                  _CNPDDbits = 0x6ae
                    0x06ae                  IOCPDD = 0x6ae
                    0x06ae                  _IOCPDD = 0x6ae
                    0x06ae                  _IOCPDDbits = 0x6ae
                    0x06b0                  TRISE = 0x6b0
                    0x06b0                  _TRISE = 0x6b0
                    0x06b0                  _TRISEbits = 0x6b0
                    0x06b2                  PORTE = 0x6b2
                    0x06b2                  _PORTE = 0x6b2
                    0x06b2                  _PORTEbits = 0x6b2
                    0x06b4                  LATE = 0x6b4
                    0x06b4                  _LATE = 0x6b4
                    0x06b4                  _LATEbits = 0x6b4
                    0x06b6                  ODCE = 0x6b6
                    0x06b6                  _ODCE = 0x6b6
                    0x06b6                  _ODCEbits = 0x6b6
                    0x06b8                  ANSE = 0x6b8
                    0x06b8                  _ANSE = 0x6b8
                    0x06b8                  _ANSEbits = 0x6b8
                    0x06b8                  ANSELE = 0x6b8
                    0x06b8                  _ANSELE = 0x6b8
                    0x06b8                  _ANSELEbits = 0x6b8
                    0x06ba                  IOCPE = 0x6ba
                    0x06ba                  _IOCPE = 0x6ba
                    0x06ba                  _IOCPEbits = 0x6ba
                    0x06bc                  IOCNE = 0x6bc
                    0x06bc                  _IOCNE = 0x6bc
                    0x06bc                  _IOCNEbits = 0x6bc
                    0x06be                  IOCFE = 0x6be
                    0x06be                  _IOCFE = 0x6be
                    0x06be                  _IOCFEbits = 0x6be
                    0x06c0                  CNPUE = 0x6c0
                    0x06c0                  _CNPUE = 0x6c0
                    0x06c0                  _CNPUEbits = 0x6c0
                    0x06c0                  IOCPUE = 0x6c0
                    0x06c0                  _IOCPUE = 0x6c0
                    0x06c0                  _IOCPUEbits = 0x6c0
                    0x06c2                  CNPDE = 0x6c2
                    0x06c2                  _CNPDE = 0x6c2
                    0x06c2                  _CNPDEbits = 0x6c2
                    0x06c2                  IOCPDE = 0x6c2
                    0x06c2                  _IOCPDE = 0x6c2
                    0x06c2                  _IOCPDEbits = 0x6c2
                    0x06c4                  TRISF = 0x6c4
                    0x06c4                  _TRISF = 0x6c4
                    0x06c4                  _TRISFbits = 0x6c4
                    0x06c6                  PORTF = 0x6c6
                    0x06c6                  _PORTF = 0x6c6
                    0x06c6                  _PORTFbits = 0x6c6
                    0x06c8                  LATF = 0x6c8
                    0x06c8                  _LATF = 0x6c8
                    0x06c8                  _LATFbits = 0x6c8
                    0x06ca                  ODCF = 0x6ca
                    0x06ca                  _ODCF = 0x6ca
                    0x06ca                  _ODCFbits = 0x6ca
                    0x06cc                  ANSELF = 0x6cc
                    0x06cc                  _ANSELF = 0x6cc
                    0x06cc                  ANSF = 0x6cc
                    0x06cc                  _ANSF = 0x6cc
                    0x06ce                  IOCPF = 0x6ce
                    0x06ce                  _IOCPF = 0x6ce
                    0x06ce                  _IOCPFbits = 0x6ce
                    0x06d0                  IOCNF = 0x6d0
                    0x06d0                  _IOCNF = 0x6d0
                    0x06d0                  _IOCNFbits = 0x6d0
                    0x06d2                  IOCFF = 0x6d2
                    0x06d2                  _IOCFF = 0x6d2
                    0x06d2                  _IOCFFbits = 0x6d2
                    0x06d4                  CNPUF = 0x6d4
                    0x06d4                  _CNPUF = 0x6d4
                    0x06d4                  _CNPUFbits = 0x6d4
                    0x06d4                  IOCPUF = 0x6d4
                    0x06d4                  _IOCPUF = 0x6d4
                    0x06d4                  _IOCPUFbits = 0x6d4
                    0x06d6                  CNPDF = 0x6d6
                    0x06d6                  _CNPDF = 0x6d6
                    0x06d6                  _CNPDFbits = 0x6d6
                    0x06d6                  IOCPDF = 0x6d6
                    0x06d6                  _IOCPDF = 0x6d6
                    0x06d6                  _IOCPDFbits = 0x6d6
                    0x06d8                  TRISG = 0x6d8
                    0x06d8                  _TRISG = 0x6d8
                    0x06d8                  _TRISGbits = 0x6d8
                    0x06da                  PORTG = 0x6da
                    0x06da                  _PORTG = 0x6da
                    0x06da                  _PORTGbits = 0x6da
                    0x06dc                  LATG = 0x6dc
                    0x06dc                  _LATG = 0x6dc
                    0x06dc                  _LATGbits = 0x6dc
                    0x06de                  ODCG = 0x6de
                    0x06de                  _ODCG = 0x6de
                    0x06de                  _ODCGbits = 0x6de
                    0x06e0                  ANSELG = 0x6e0
                    0x06e0                  _ANSELG = 0x6e0
                    0x06e0                  _ANSELGbits = 0x6e0
                    0x06e0                  ANSG = 0x6e0
                    0x06e0                  _ANSG = 0x6e0
                    0x06e0                  _ANSGbits = 0x6e0
                    0x06e2                  IOCPG = 0x6e2
                    0x06e2                  _IOCPG = 0x6e2
                    0x06e2                  _IOCPGbits = 0x6e2
                    0x06e4                  IOCNG = 0x6e4
                    0x06e4                  _IOCNG = 0x6e4
                    0x06e4                  _IOCNGbits = 0x6e4
                    0x06e6                  IOCFG = 0x6e6
                    0x06e6                  _IOCFG = 0x6e6
                    0x06e6                  _IOCFGbits = 0x6e6
                    0x06e8                  CNPUG = 0x6e8
                    0x06e8                  _CNPUG = 0x6e8
                    0x06e8                  _CNPUGbits = 0x6e8
                    0x06e8                  IOCPUG = 0x6e8
                    0x06e8                  _IOCPUG = 0x6e8
                    0x06e8                  _IOCPUGbits = 0x6e8
                    0x06ea                  CNPDG = 0x6ea
                    0x06ea                  _CNPDG = 0x6ea
                    0x06ea                  _CNPDGbits = 0x6ea
                    0x06ea                  IOCPDG = 0x6ea
                    0x06ea                  _IOCPDG = 0x6ea
                    0x06ea                  _IOCPDGbits = 0x6ea
                    0x0700                  ADC1BUF0 = 0x700
                    0x0700                  _ADC1BUF0 = 0x700
                    0x0702                  ADC1BUF1 = 0x702
                    0x0702                  _ADC1BUF1 = 0x702
                    0x0704                  ADC1BUF2 = 0x704
                    0x0704                  _ADC1BUF2 = 0x704
                    0x0706                  ADC1BUF3 = 0x706
                    0x0706                  _ADC1BUF3 = 0x706
                    0x0708                  ADC1BUF4 = 0x708
                    0x0708                  _ADC1BUF4 = 0x708
                    0x070a                  ADC1BUF5 = 0x70a
                    0x070a                  _ADC1BUF5 = 0x70a
                    0x070c                  ADC1BUF6 = 0x70c
                    0x070c                  _ADC1BUF6 = 0x70c
                    0x070e                  ADC1BUF7 = 0x70e
                    0x070e                  _ADC1BUF7 = 0x70e
                    0x0710                  ADC1BUF8 = 0x710
                    0x0710                  _ADC1BUF8 = 0x710
                    0x0712                  ADC1BUF9 = 0x712
                    0x0712                  _ADC1BUF9 = 0x712
                    0x0714                  ADC1BUF10 = 0x714
                    0x0714                  _ADC1BUF10 = 0x714
                    0x0716                  ADC1BUF11 = 0x716
                    0x0716                  _ADC1BUF11 = 0x716
                    0x0718                  ADC1BUF12 = 0x718
                    0x0718                  _ADC1BUF12 = 0x718
                    0x071a                  ADC1BUF13 = 0x71a
                    0x071a                  _ADC1BUF13 = 0x71a
                    0x071c                  ADC1BUF14 = 0x71c
                    0x071c                  _ADC1BUF14 = 0x71c
                    0x071e                  ADC1BUF15 = 0x71e
                    0x071e                  _ADC1BUF15 = 0x71e
                    0x0720                  ADC1BUF16 = 0x720
                    0x0720                  _ADC1BUF16 = 0x720
                    0x0734                  AD1CON1 = 0x734
                    0x0734                  _AD1CON1 = 0x734
                    0x0734                  _AD1CON1bits = 0x734
                    0x0736                  AD1CON2 = 0x736
                    0x0736                  _AD1CON2 = 0x736
                    0x0736                  _AD1CON2bits = 0x736
                    0x0738                  AD1CON3 = 0x738
                    0x0738                  _AD1CON3 = 0x738
                    0x0738                  _AD1CON3bits = 0x738
                    0x073a                  AD1CHS = 0x73a
                    0x073a                  _AD1CHS = 0x73a
                    0x073a                  _AD1CHSbits = 0x73a
                    0x073a                  AD1CHS0 = 0x73a
                    0x073a                  _AD1CHS0 = 0x73a
                    0x073a                  _AD1CHS0bits = 0x73a
                    0x073c                  AD1CSSH = 0x73c
                    0x073c                  _AD1CSSH = 0x73c
                    0x073c                  _AD1CSSHbits = 0x73c
                    0x073e                  AD1CSSL = 0x73e
                    0x073e                  _AD1CSSL = 0x73e
                    0x073e                  _AD1CSSLbits = 0x73e
                    0x0740                  AD1CON4 = 0x740
                    0x0740                  _AD1CON4 = 0x740
                    0x0740                  _AD1CON4bits = 0x740
                    0x0742                  AD1CON5 = 0x742
                    0x0742                  _AD1CON5 = 0x742
                    0x0742                  _AD1CON5bits = 0x742
                    0x0744                  AD1CHITH = 0x744
                    0x0744                  _AD1CHITH = 0x744
                    0x0744                  _AD1CHITHbits = 0x744
                    0x0746                  AD1CHITL = 0x746
                    0x0746                  _AD1CHITL = 0x746
                    0x0746                  _AD1CHITLbits = 0x746
                    0x074c                  AD1DMBUF = 0x74c
                    0x074c                  _AD1DMBUF = 0x74c
                    0x074c                  _AD1DMBUFbits = 0x74c
                    0x074c                  AD1RESDMA = 0x74c
                    0x074c                  _AD1RESDMA = 0x74c
                    0x074c                  _AD1RESDMAbits = 0x74c
                    0x0760                  NVMCON = 0x760
                    0x0760                  _NVMCON = 0x760
                    0x0760                  _NVMCONbits = 0x760
                    0x0762                  NVMADR = 0x762
                    0x0762                  _NVMADR = 0x762
                    0x0762                  _NVMADRbits = 0x762
                    0x0762                  NVMADRL = 0x762
                    0x0762                  _NVMADRL = 0x762
                    0x0762                  _NVMADRLbits = 0x762
                    0x0764                  NVMADRH = 0x764
                    0x0764                  _NVMADRH = 0x764
                    0x0764                  _NVMADRHbits = 0x764
                    0x0764                  NVMADRU = 0x764
                    0x0764                  _NVMADRU = 0x764
                    0x0764                  _NVMADRUbits = 0x764
                    0x0766                  NVMKEY = 0x766
                    0x0766                  _NVMKEY = 0x766
                    0x076c                  ECCCONL = 0x76c
                    0x076c                  _ECCCONL = 0x76c
                    0x076c                  _ECCCONLbits = 0x76c
                    0x076e                  ECCCONH = 0x76e
                    0x076e                  _ECCCONH = 0x76e
                    0x076e                  _ECCCONHbits = 0x76e
                    0x0770                  ECCADDRL = 0x770
                    0x0770                  _ECCADDRL = 0x770
                    0x0772                  ECCADDRH = 0x772
                    0x0772                  _ECCADDRH = 0x772
                    0x0774                  ECCSTATL = 0x774
                    0x0774                  _ECCSTATL = 0x774
                    0x0774                  _ECCSTATLbits = 0x774
                    0x0776                  ECCSTATH = 0x776
                    0x0776                  _ECCSTATH = 0x776
                    0x0776                  _ECCSTATHbits = 0x776
                    0x0790                  RPINR0 = 0x790
                    0x0790                  _RPINR0 = 0x790
                    0x0790                  _RPINR0bits = 0x790
                    0x0792                  RPINR1 = 0x792
                    0x0792                  _RPINR1 = 0x792
                    0x0792                  _RPINR1bits = 0x792
                    0x0794                  RPINR2 = 0x794
                    0x0794                  _RPINR2 = 0x794
                    0x0794                  _RPINR2bits = 0x794
                    0x0796                  RPINR3 = 0x796
                    0x0796                  _RPINR3 = 0x796
                    0x0796                  _RPINR3bits = 0x796
                    0x0798                  RPINR4 = 0x798
                    0x0798                  _RPINR4 = 0x798
                    0x0798                  _RPINR4bits = 0x798
                    0x079a                  RPINR5 = 0x79a
                    0x079a                  _RPINR5 = 0x79a
                    0x079a                  _RPINR5bits = 0x79a
                    0x079c                  RPINR6 = 0x79c
                    0x079c                  _RPINR6 = 0x79c
                    0x079c                  _RPINR6bits = 0x79c
                    0x07a6                  RPINR11 = 0x7a6
                    0x07a6                  _RPINR11 = 0x7a6
                    0x07a6                  _RPINR11bits = 0x7a6
                    0x07a8                  RPINR12 = 0x7a8
                    0x07a8                  _RPINR12 = 0x7a8
                    0x07a8                  _RPINR12bits = 0x7a8
                    0x07aa                  RPINR13 = 0x7aa
                    0x07aa                  _RPINR13 = 0x7aa
                    0x07aa                  _RPINR13bits = 0x7aa
                    0x07ac                  RPINR14 = 0x7ac
                    0x07ac                  _RPINR14 = 0x7ac
                    0x07ac                  _RPINR14bits = 0x7ac
                    0x07b2                  RPINR17 = 0x7b2
                    0x07b2                  _RPINR17 = 0x7b2
                    0x07b2                  _RPINR17bits = 0x7b2
                    0x07b4                  RPINR18 = 0x7b4
                    0x07b4                  _RPINR18 = 0x7b4
                    0x07b4                  _RPINR18bits = 0x7b4
                    0x07b6                  RPINR19 = 0x7b6
                    0x07b6                  _RPINR19 = 0x7b6
                    0x07b6                  _RPINR19bits = 0x7b6
                    0x07b8                  RPINR20 = 0x7b8
                    0x07b8                  _RPINR20 = 0x7b8
                    0x07b8                  _RPINR20bits = 0x7b8
                    0x07ba                  RPINR21 = 0x7ba
                    0x07ba                  _RPINR21 = 0x7ba
                    0x07ba                  _RPINR21bits = 0x7ba
                    0x07bc                  RPINR22 = 0x7bc
                    0x07bc                  _RPINR22 = 0x7bc
                    0x07bc                  _RPINR22bits = 0x7bc
                    0x07be                  RPINR23 = 0x7be
                    0x07be                  _RPINR23 = 0x7be
                    0x07be                  _RPINR23bits = 0x7be
                    0x07c2                  RPINR25 = 0x7c2
                    0x07c2                  _RPINR25 = 0x7c2
                    0x07c2                  _RPINR25bits = 0x7c2
                    0x07c4                  RPINR26 = 0x7c4
                    0x07c4                  _RPINR26 = 0x7c4
                    0x07c4                  _RPINR26bits = 0x7c4
                    0x07c6                  RPINR27 = 0x7c6
                    0x07c6                  _RPINR27 = 0x7c6
                    0x07c6                  _RPINR27bits = 0x7c6
                    0x07d4                  RPOR0 = 0x7d4
                    0x07d4                  _RPOR0 = 0x7d4
                    0x07d4                  _RPOR0bits = 0x7d4
                    0x07d6                  RPOR1 = 0x7d6
                    0x07d6                  _RPOR1 = 0x7d6
                    0x07d6                  _RPOR1bits = 0x7d6
                    0x07d8                  RPOR2 = 0x7d8
                    0x07d8                  _RPOR2 = 0x7d8
                    0x07d8                  _RPOR2bits = 0x7d8
                    0x07da                  RPOR3 = 0x7da
                    0x07da                  _RPOR3 = 0x7da
                    0x07da                  _RPOR3bits = 0x7da
                    0x07dc                  RPOR4 = 0x7dc
                    0x07dc                  _RPOR4 = 0x7dc
                    0x07dc                  _RPOR4bits = 0x7dc
                    0x07de                  RPOR5 = 0x7de
                    0x07de                  _RPOR5 = 0x7de
                    0x07de                  _RPOR5bits = 0x7de
                    0x07e0                  RPOR6 = 0x7e0
                    0x07e0                  _RPOR6 = 0x7e0
                    0x07e0                  _RPOR6bits = 0x7e0
                    0x07e2                  RPOR7 = 0x7e2
                    0x07e2                  _RPOR7 = 0x7e2
                    0x07e2                  _RPOR7bits = 0x7e2
                    0x07e4                  RPOR8 = 0x7e4
                    0x07e4                  _RPOR8 = 0x7e4
                    0x07e4                  _RPOR8bits = 0x7e4
                    0x07e6                  RPOR9 = 0x7e6
                    0x07e6                  _RPOR9 = 0x7e6
                    0x07e6                  _RPOR9bits = 0x7e6
                    0x07e8                  RPOR10 = 0x7e8
                    0x07e8                  _RPOR10 = 0x7e8
                    0x07e8                  _RPOR10bits = 0x7e8
                    0x07ea                  RPOR11 = 0x7ea
                    0x07ea                  _RPOR11 = 0x7ea
                    0x07ea                  _RPOR11bits = 0x7ea
                    0x07ec                  RPOR12 = 0x7ec
                    0x07ec                  _RPOR12 = 0x7ec
                    0x07ec                  _RPOR12bits = 0x7ec
                    0x07ee                  RPOR13 = 0x7ee
                    0x07ee                  _RPOR13 = 0x7ee
                    0x07ee                  _RPOR13bits = 0x7ee
                    0x07f0                  RPOR14 = 0x7f0
                    0x07f0                  _RPOR14 = 0x7f0
                    0x07f0                  _RPOR14bits = 0x7f0
                    0x07f2                  RPOR15 = 0x7f2
                    0x07f2                  _RPOR15 = 0x7f2
                    0x07f2                  _RPOR15bits = 0x7f2
                    0x03fe                  SPI1 = 0x3fe
                    0x03fe                  _SPI1 = 0x3fe
                    0x041a                  SPI2 = 0x41a
                    0x041a                  _SPI2 = 0x41a
                    0x0398                  UART1 = 0x398
                    0x0398                  _UART1 = 0x398
                    0x03ae                  UART2 = 0x3ae
                    0x03ae                  _UART2 = 0x3ae
                    0x03c4                  UART3 = 0x3c4
                    0x03c4                  _UART3 = 0x3c4
                    0x03d0                  UART4 = 0x3d0
                    0x03d0                  _UART4 = 0x3d0
START GROUP
LOAD /Applications/microchip/xc16/v2.10/bin/bin/../../lib/libc99-pic30-elf.a
LOAD /Applications/microchip/xc16/v2.10/bin/bin/../../lib/libm-elf.a
LOAD /Applications/microchip/xc16/v2.10/bin/bin/../../lib/libc99-elf.a
END GROUP
OUTPUT(dist/default/production/ScentCollCharsCopy.X.production.elf elf32-pic30)
LOAD jump_table
LOAD default_isr
LOAD data_init

.debug_pubtypes
                  0x0005d8       0x134a
 .debug_pubtypes
                  0x0005d8        0x1b2 build/default/production/PWM.o
 .debug_pubtypes
                  0x00078a        0x1de build/default/production/bluetooth.o
 .debug_pubtypes
                  0x000968        0x566 build/default/production/main.o
 .debug_pubtypes
                  0x000ece         0xf0 build/default/production/owire.o
 .debug_pubtypes
                  0x000fbe         0xd2 build/default/production/adc.o
 .debug_pubtypes
                  0x001090         0xf4 build/default/production/piezos.o
 .debug_pubtypes
                  0x001184         0x84 build/default/production/eeprom.o
 .debug_pubtypes
                  0x001208         0xdf build/default/production/eeprom_async.o
 .debug_pubtypes
                  0x0012e7         0x8f build/default/production/i2c.o
 .debug_pubtypes
                  0x001376         0xcd build/default/production/i2c_async.o
 .debug_pubtypes
                  0x001443         0x7a build/default/production/pod.o
 .debug_pubtypes
                  0x0014bd         0xe1 build/default/production/pod_manager.o
 .debug_pubtypes
                  0x00159e        0x106 build/default/production/pod_manager_async.o
 .debug_pubtypes
                  0x0016a4        0x27e build/default/production/relay_pwm_manager.o

__c30_signature
                  0x001922        0x1e6
 __c30_signature
                  0x001922          0x6 build/default/production/PWM.o
 __c30_signature
                  0x001928          0x6 build/default/production/bluetooth.o
 __c30_signature
                  0x00192e          0x6 build/default/production/main.o
 __c30_signature
                  0x001934          0x6 build/default/production/owire.o
 __c30_signature
                  0x00193a          0x6 build/default/production/adc.o
 __c30_signature
                  0x001940          0x6 build/default/production/piezos.o
 __c30_signature
                  0x001946          0x6 build/default/production/eeprom.o
 __c30_signature
                  0x00194c          0x6 build/default/production/eeprom_async.o
 __c30_signature
                  0x001952          0x6 build/default/production/i2c.o
 __c30_signature
                  0x001958          0x6 build/default/production/i2c_async.o
 __c30_signature
                  0x00195e          0x6 build/default/production/pod.o
 __c30_signature
                  0x001964          0x6 build/default/production/pod_manager.o
 __c30_signature
                  0x00196a          0x6 build/default/production/pod_manager_async.o
 __c30_signature
                  0x001970          0x6 build/default/production/relay_pwm_manager.o
 __c30_signature
                  0x001976          0x6 /Applications/microchip/xc16/v2.10/bin/bin/../../lib/libc99-pic30-elf.a(crt0_extended24.o)
 __c30_signature
                  0x00197c          0x6 /Applications/microchip/xc16/v2.10/bin/bin/../../lib/libc99-pic30-elf.a(data_init_24.o)
 __c30_signature
                  0x001982          0x6 /Applications/microchip/xc16/v2.10/bin/bin/../../lib/libc99-pic30-elf.a(delay32da.Meo)
 __c30_signature
                  0x001988          0x6 /Applications/microchip/xc16/v2.10/bin/bin/../../lib/libc99-pic30-elf.a(feqltle.DA_o)
 __c30_signature
                  0x00198e          0x6 /Applications/microchip/xc16/v2.10/bin/bin/../../lib/libc99-pic30-elf.a(fgtge.DA_o)
 __c30_signature
                  0x001994          0x6 /Applications/microchip/xc16/v2.10/bin/bin/../../lib/libc99-pic30-elf.a(fixsfsi.DA_o)
 __c30_signature
                  0x00199a          0x6 /Applications/microchip/xc16/v2.10/bin/bin/../../lib/libc99-pic30-elf.a(fixunssfsi.DA_o)
 __c30_signature
                  0x0019a0          0x6 /Applications/microchip/xc16/v2.10/bin/bin/../../lib/libc99-pic30-elf.a(floatsisf.DA_o)
 __c30_signature
                  0x0019a6          0x6 /Applications/microchip/xc16/v2.10/bin/bin/../../lib/libc99-pic30-elf.a(floatunsisf.DA_o)
 __c30_signature
                  0x0019ac          0x6 /Applications/microchip/xc16/v2.10/bin/bin/../../lib/libc99-pic30-elf.a(funpack.DA_o)
 __c30_signature
                  0x0019b2          0x6 /Applications/microchip/xc16/v2.10/bin/bin/../../lib/libc99-pic30-elf.a(udivsi3.DA_o)
 __c30_signature
                  0x0019b8          0x6 /Applications/microchip/xc16/v2.10/bin/bin/../../lib/libc99-pic30-elf.a(divmoddi3.DA_o)
 __c30_signature
                  0x0019be          0x6 /Applications/microchip/xc16/v2.10/bin/bin/../../lib/libc99-pic30-elf.a(muldi3.DA_o)
 __c30_signature
                  0x0019c4          0x6 /Applications/microchip/xc16/v2.10/bin/bin/../../lib/libc99-pic30-elf.a(errno.DA_o)
 __c30_signature
                  0x0019ca          0x6 /Applications/microchip/xc16/v2.10/bin/bin/../../lib/libc99-pic30-elf.a(fcompare.DA_o)
 __c30_signature
                  0x0019d0          0x6 /Applications/microchip/xc16/v2.10/bin/bin/../../lib/libc99-pic30-elf.a(floatdisf.DA_o)
 __c30_signature
                  0x0019d6          0x6 /Applications/microchip/xc16/v2.10/bin/bin/../../lib/libc99-pic30-elf.a(floatundisf.DA_o)
 __c30_signature
                  0x0019dc          0x6 /Applications/microchip/xc16/v2.10/bin/bin/../../lib/libc99-pic30-elf.a(fpack.DA_o)
 __c30_signature
                  0x0019e2          0x6 /Applications/microchip/xc16/v2.10/bin/bin/../../lib/libc99-pic30-elf.a(funpack2.DA_o)
 __c30_signature
                  0x0019e8          0x6 /Applications/microchip/xc16/v2.10/bin/bin/../../lib/libc99-pic30-elf.a(umuldi3.DA_o)
 __c30_signature
                  0x0019ee          0x6 /Applications/microchip/xc16/v2.10/bin/bin/../../lib/libc99-elf.a(__sio_sprintf_dfosux.DA_o)
 __c30_signature
                  0x0019f4          0x6 /Applications/microchip/xc16/v2.10/bin/bin/../../lib/libc99-elf.a(__sio_sprintf_dosux.DA_o)
 __c30_signature
                  0x0019fa          0x6 /Applications/microchip/xc16/v2.10/bin/bin/../../lib/libc99-elf.a(__sio_sprintf_s.DA_o)
 __c30_signature
                  0x001a00          0x6 /Applications/microchip/xc16/v2.10/bin/bin/../../lib/libc99-elf.a(memcmp.DA_o)
 __c30_signature
                  0x001a06          0x6 /Applications/microchip/xc16/v2.10/bin/bin/../../lib/libc99-elf.a(memcpy.DA_o)
 __c30_signature
                  0x001a0c          0x6 /Applications/microchip/xc16/v2.10/bin/bin/../../lib/libc99-elf.a(memset.DA_o)
 __c30_signature
                  0x001a12          0x6 /Applications/microchip/xc16/v2.10/bin/bin/../../lib/libc99-elf.a(strtol.DA_o)
 __c30_signature
                  0x001a18          0x6 /Applications/microchip/xc16/v2.10/bin/bin/../../lib/libc99-elf.a(__fmt_d.DA_o)
 __c30_signature
                  0x001a1e          0x6 /Applications/microchip/xc16/v2.10/bin/bin/../../lib/libc99-elf.a(__fmt_fp.DA_o)
 __c30_signature
                  0x001a24          0x6 /Applications/microchip/xc16/v2.10/bin/bin/../../lib/libc99-elf.a(__fmt_o.DA_o)
 __c30_signature
                  0x001a2a          0x6 /Applications/microchip/xc16/v2.10/bin/bin/../../lib/libc99-elf.a(__fmt_s.DA_o)
 __c30_signature
                  0x001a30          0x6 /Applications/microchip/xc16/v2.10/bin/bin/../../lib/libc99-elf.a(__fmt_u.DA_o)
 __c30_signature
                  0x001a36          0x6 /Applications/microchip/xc16/v2.10/bin/bin/../../lib/libc99-elf.a(__fmt_x.DA_o)
 __c30_signature
                  0x001a3c          0x6 /Applications/microchip/xc16/v2.10/bin/bin/../../lib/libc99-elf.a(__int_vsprintf.DA_o)
 __c30_signature
                  0x001a42          0x6 /Applications/microchip/xc16/v2.10/bin/bin/../../lib/libc99-elf.a(__pop_float.DA_o)
 __c30_signature
                  0x001a48          0x6 /Applications/microchip/xc16/v2.10/bin/bin/../../lib/libc99-elf.a(__pop_int.DA_o)
 __c30_signature
                  0x001a4e          0x6 /Applications/microchip/xc16/v2.10/bin/bin/../../lib/libc99-elf.a(__pop_ptr.DA_o)
 __c30_signature
                  0x001a54          0x6 /Applications/microchip/xc16/v2.10/bin/bin/../../lib/libc99-elf.a(__printf_core.DA_o)
 __c30_signature
                  0x001a5a          0x6 /Applications/microchip/xc16/v2.10/bin/bin/../../lib/libc99-elf.a(atoi.DA_o)
 __c30_signature
                  0x001a60          0x6 /Applications/microchip/xc16/v2.10/bin/bin/../../lib/libc99-elf.a(intscan.DA_o)
 __c30_signature
                  0x001a66          0x6 /Applications/microchip/xc16/v2.10/bin/bin/../../lib/libc99-elf.a(shgetc.DA_o)
 __c30_signature
                  0x001a6c          0x6 /Applications/microchip/xc16/v2.10/bin/bin/../../lib/libc99-elf.a(strcpy.DA_o)
 __c30_signature
                  0x001a72          0x6 /Applications/microchip/xc16/v2.10/bin/bin/../../lib/libc99-elf.a(strlen.DA_o)
 __c30_signature
                  0x001a78          0x6 /Applications/microchip/xc16/v2.10/bin/bin/../../lib/libc99-elf.a(tolower.DA_o)
 __c30_signature
                  0x001a7e          0x6 /Applications/microchip/xc16/v2.10/bin/bin/../../lib/libc99-elf.a(toupper.DA_o)
 __c30_signature
                  0x001a84          0x6 /Applications/microchip/xc16/v2.10/bin/bin/../../lib/libc99-elf.a(__errno_location.DA_o)
 __c30_signature
                  0x001a8a          0x6 /Applications/microchip/xc16/v2.10/bin/bin/../../lib/libc99-elf.a(__int_vsnprintf.DA_o)
 __c30_signature
                  0x001a90          0x6 /Applications/microchip/xc16/v2.10/bin/bin/../../lib/libc99-elf.a(__uflow.DA_o)
 __c30_signature
                  0x001a96          0x6 /Applications/microchip/xc16/v2.10/bin/bin/../../lib/libc99-elf.a(stpcpy.DA_o)
 __c30_signature
                  0x001a9c          0x6 /Applications/microchip/xc16/v2.10/bin/bin/../../lib/libc99-elf.a(__int_vfprintf.DA_o)
 __c30_signature
                  0x001aa2          0x6 /Applications/microchip/xc16/v2.10/bin/bin/../../lib/libc99-elf.a(__toread.DA_o)
 __c30_signature
                  0x001aa8          0x6 /Applications/microchip/xc16/v2.10/bin/bin/../../lib/libc99-elf.a(__stdio_exit.DA_o)
 __c30_signature
                  0x001aae          0x6 /Applications/microchip/xc16/v2.10/bin/bin/../../lib/libc99-pic30-elf.a(deqltle.DA_o)
 __c30_signature
                  0x001ab4          0x6 /Applications/microchip/xc16/v2.10/bin/bin/../../lib/libc99-pic30-elf.a(dgtge.DA_o)
 __c30_signature
                  0x001aba          0x6 /Applications/microchip/xc16/v2.10/bin/bin/../../lib/libc99-pic30-elf.a(extendsfdf.DA_o)
 __c30_signature
                  0x001ac0          0x6 /Applications/microchip/xc16/v2.10/bin/bin/../../lib/libc99-pic30-elf.a(fixdfsi.DA_o)
 __c30_signature
                  0x001ac6          0x6 /Applications/microchip/xc16/v2.10/bin/bin/../../lib/libc99-pic30-elf.a(mulsi3.DA_o)
 __c30_signature
                  0x001acc          0x6 /Applications/microchip/xc16/v2.10/bin/bin/../../lib/libc99-pic30-elf.a(dpadd.DA_o)
 __c30_signature
                  0x001ad2          0x6 /Applications/microchip/xc16/v2.10/bin/bin/../../lib/libc99-pic30-elf.a(dpdiv.DA_o)
 __c30_signature
                  0x001ad8          0x6 /Applications/microchip/xc16/v2.10/bin/bin/../../lib/libc99-pic30-elf.a(dpmul.DA_o)
 __c30_signature
                  0x001ade          0x6 /Applications/microchip/xc16/v2.10/bin/bin/../../lib/libc99-pic30-elf.a(dpsubs.DA_o)
 __c30_signature
                  0x001ae4          0x6 /Applications/microchip/xc16/v2.10/bin/bin/../../lib/libc99-pic30-elf.a(dcompare.DA_o)
 __c30_signature
                  0x001aea          0x6 /Applications/microchip/xc16/v2.10/bin/bin/../../lib/libc99-pic30-elf.a(dtype.DA_o)
 __c30_signature
                  0x001af0          0x6 /Applications/microchip/xc16/v2.10/bin/bin/../../lib/libc99-pic30-elf.a(dunpack.DA_o)
 __c30_signature
                  0x001af6          0x6 /Applications/microchip/xc16/v2.10/bin/bin/../../lib/libc99-pic30-elf.a(dunpack2.DA_o)
 __c30_signature
                  0x001afc          0x6 /Applications/microchip/xc16/v2.10/bin/bin/../../lib/libc99-pic30-elf.a(dpropagateNaN.DA_o)
 __c30_signature
                  0x001b02          0x6 /Applications/microchip/xc16/v2.10/bin/bin/../../lib/libm-elf.a(floorl.DA_o)

.nbss               0x0800         0x3a
 .nbss              0x0800         0x18 build/default/production/adc.o
                    0x0800                  _c_volts
                    0x0804                  _c_volts_comp
                    0x0808                  _t_volts
                    0x080c                  _t_volts_comp
                    0x0810                  _b_volts
                    0x0814                  _b_volts_comp
 .nbss              0x0818         0x12 build/default/production/owire.o
                    0x0818                  _last_discrepancy
                    0x081a                  _last_fam_discrepancy
                    0x081c                  _last_dev_flag
                    0x081e                  _crc8
                    0x0824                  _mode
                    0x0826                  _pod_index
                    0x0828                  _pod_data_type
 .nbss              0x082a         0x10 build/default/production/main.o
                    0x082a                  _led
                    0x082c                  _charge_mV
                    0x082e                  _battery_mV
                    0x0830                  _trans_mV
                    0x0832                  _button_state
                    0x0833                  _down_pressed
                    0x0834                  _up_pressed
                    0x0836                  _global_intensity
                    0x0838                  _int3_state
                    0x0839                  _read_count

.ndata              0x083a          0x6
 .ndata             0x083a          0x6 build/default/production/PWM.o
                    0x083a                  _freq
                    0x083c                  _global_multi

.nbss               0x0840          0xc
 .nbss              0x0840          0x6 build/default/production/piezos.o
                    0x0840                  _fifo_items_right
                    0x0842                  _fifo_items_left
                    0x0844                  _piezo_interrupt
 .nbss              0x0846          0x6 build/default/production/relay_pwm_manager.o

.ndata              0x084c          0x4
 .ndata             0x084c          0x4 build/default/production/main.o
                    0x084c                  _intensity_multi

.nbss               0x0850          0xc
 .nbss              0x0850          0x4 build/default/production/i2c_async.o
 .nbss              0x0854          0x2 build/default/production/PWM.o
                    0x0854                  _freq_override
 .nbss              0x0856          0x2 build/default/production/bluetooth.o
                    0x0856                  _error_counter
                    0x0857                  _testVar
 .nbss              0x0858          0x2 build/default/production/eeprom_async.o
 .nbss              0x085a          0x2 build/default/production/pod_manager.o

.ndata              0x085c          0x2
 .ndata             0x085c          0x2 build/default/production/relay_pwm_manager.o

.nbss               0x085e          0x2
 .nbss              0x085e          0x2 /Applications/microchip/xc16/v2.10/bin/bin/../../lib/libc99-pic30-elf.a(errno.DA_o)
                    0x085e                  _errno

.bss                0x0860        0x3a2
 .bss               0x0860        0x252 build/default/production/main.o
                    0x0a7a                  _store
                    0x0a9a                  _messageStore
 .bss               0x0ab2        0x150 build/default/production/owire.o
                    0x0ab2                  _rom_no
                    0x0aba                  _pod_store
                    0x0b1e                  _all_roms

.data               0x0c02        0x216
 .data              0x0c02        0x10c build/default/production/owire.o
                    0x0d02                  _dummy_ids
 .data              0x0d0e        0x10a /Applications/microchip/xc16/v2.10/bin/bin/../../lib/libc99-elf.a(intscan.DA_o)

.bss                0x0e18         0x50
 .bss               0x0e18         0x50 build/default/production/piezos.o
                    0x0e18                  _piezo_fifo_right
                    0x0e40                  _piezo_fifo_left

.data               0x0e68         0x2e
 .data              0x0e68         0x1e /Applications/microchip/xc16/v2.10/bin/bin/../../lib/libc99-elf.a(__printf_core.DA_o)
 .data              0x0e86         0x10 /Applications/microchip/xc16/v2.10/bin/bin/../../lib/libc99-elf.a(__fmt_fp.DA_o)

.bss                0x0e96          0xe
 .bss               0x0e96          0xa build/default/production/eeprom_async.o
 .bss               0x0ea0          0x2 /Applications/microchip/xc16/v2.10/bin/bin/../../lib/libc99-elf.a(__errno_location.DA_o)
                    0x0ea0                  ___errno_val
 .bss               0x0ea2          0x2 /Applications/microchip/xc16/v2.10/bin/bin/../../lib/libc99-elf.a(__stdio_exit.DA_o)
                    0x0ea2                  ___stderr_used
                    0x0ea2                  ___stdin_used
                    0x0ea2                  ___stdout_used

.ivt._U1RXInterrupt
                  0x00002a          0x2
 .ivt._U1RXInterrupt
                  0x00002a          0x2 build/default/production/bluetooth.o

.config_JTAGEN    0x015f28          0x2
 .config_JTAGEN
                  0x015f28          0x2 build/default/production/main.o

.config_WDTCLK    0x015f20          0x2
 .config_WDTCLK
                  0x015f20          0x2 build/default/production/main.o

.config_IESO      0x015f18          0x2
 .config_IESO     0x015f18          0x2 build/default/production/main.o

.ivt._IOCInterrupt
                  0x00003a          0x2
 .ivt._IOCInterrupt
                  0x00003a          0x2 build/default/production/main.o

.ivt._T1Interrupt
                  0x00001a          0x2
 .ivt._T1Interrupt
                  0x00001a          0x2 build/default/production/main.o

.ivt._INT1Interrupt
                  0x00003c          0x2
 .ivt._INT1Interrupt
                  0x00003c          0x2 build/default/production/main.o

.ivt._INT2Interrupt
                  0x00004e          0x2
 .ivt._INT2Interrupt
                  0x00004e          0x2 build/default/production/main.o

.ivt._INT3Interrupt
                  0x00007e          0x2
 .ivt._INT3Interrupt
                  0x00007e          0x2 build/default/production/main.o

.ivt._T4Interrupt
                  0x00004a          0x2
 .ivt._T4Interrupt
                  0x00004a          0x2 build/default/production/main.o

.ivt._MI2C1Interrupt
                  0x000036          0x2
 .ivt._MI2C1Interrupt
                  0x000036          0x2 build/default/production/i2c_async.o

.ivt._T3Interrupt
                  0x000024          0x2
 .ivt._T3Interrupt
                  0x000024          0x2 build/default/production/relay_pwm_manager.o

.const              0xb1c2        0x174 load address 0x0031c2  
 .const             0xb1c2        0x130 build/default/production/bluetooth.o
 .const             0xb2f2         0x24 build/default/production/relay_pwm_manager.o
 .const             0xb316          0xa build/default/production/main.o
 .const             0xb320          0xa build/default/production/i2c.o
 .const             0xb32a          0x6 build/default/production/pod_manager.o
 .const             0xb330          0x6 build/default/production/pod_manager_async.o

.text             0x003336       0x2d9a
 .text            0x003336        0xd66 build/default/production/owire.o
                  0x003336                  _docrc8
                  0x00334c                  _ow_reset
                  0x00337c                  _ow_write_bit
                  0x0033ac                  _ow_read_bit
                  0x0033d6                  _ow_read_byte
                  0x003404                  _ow_write_byte
                  0x003428                  _ow_search_rom
                  0x003432                  _rom_code_to_bits
                  0x003492                  _ow_read_mem
                  0x0034ec                  _ow_write_scratchpad
                  0x003576                  _ow_read_scratchpad
                  0x00361e                  _ow_copy_scratchpad
                  0x003664                  _write_save_eeprom
                  0x0036c4                  _read_eeprom
                  0x0037e0                  _read_pod_eeprom
                  0x0038ec                  _verify_eeprom
                  0x003aaa                  _find_channel_by_pod_code
                  0x003ad8                  _find_by_pod_id
                  0x003b56                  _find_by_scent_id
                  0x003bd4                  _find_by_channel_num
                  0x003c3e                  _set_pod_id
                  0x003c88                  _set_scent_id
                  0x003cd2                  _set_pod_position
                  0x003d1c                  _set_scent_level
                  0x003d62                  _is_present
                  0x003da2                  _pod_added_led
                  0x003da8                  _pod_removed_led
                  0x003dae                  _pod_error_led
                  0x003db4                  _is_present_all_roms
                  0x003de6                  _initial_search
                  0x003e52                  _find_missing
                  0x003ec2                  _add_pod
                  0x003ff8                  _pods_idle
                  0x00400c                  _remove_pod
                  0x00402c                  _locate_pods
 .text            0x00409c        0x9b6 build/default/production/bluetooth.o
                  0x00409c                  _setupBT
                  0x004102                  _enableSerial
                  0x00412c                  _BTTX
                  0x004160                  _sendLEName
                  0x004192                  _sendName
                  0x0041c4                  _enableSSP
                  0x0041f2                  _profileSelect
                  0x004222                  _sendTest
                  0x0042b6                  _sendData
                  0x004304                  _sendButtonState
                  0x004334                  _sendBattLevel
                  0x004362                  _sendPod
                  0x00439c                  _sendScentLevel
                  0x0043d6                  _sendScentIDs
                  0x004410                  _sendScentMsg
                  0x004444                  _sendReboot
                  0x004472                  _sendDSCA
                  0x0044a0                  _sendA2dpDisc
                  0x0044bc                  _sendRestore
                  0x0044d6                  _sendSPPData
                  0x004546                  _sendPodIDsOLD
                  0x0045bc                  _sendScentIDsOLD
                  0x004632                  _sendScentLevelsOLD
                  0x00468e                  _sendPowerStatsOLD
                  0x004718                  _dump_OK
                  0x004776                  _BTRX
 .text            0x004a52        0x976 build/default/production/piezos.o
                  0x004a52                  _activate_piezo
                  0x004b96                  _fire_piezo_R1
                  0x004c2a                  _fire_piezo_R2
                  0x004cbe                  _fire_piezo_R3
                  0x004d46                  _fire_piezo_L1
                  0x004dda                  _fire_piezo_L2
                  0x004e6e                  _fire_piezo_L3
                  0x004ef6                  _wait_4_piezo
                  0x004f28                  _fire_piezo
                  0x0050a6                  _fire_piezo_two
                  0x005222                  _piezo_handler
                  0x005272                  _adjust_intensity
                  0x0052aa                  _piezo_fifo_init
                  0x0052c0                  _piezo_fifo_right_get
                  0x005314                  _piezo_fifo_right_put
                  0x00533c                  _piezo_fifo_right_items
                  0x005344                  _piezo_fifo_left_get
                  0x005398                  _piezo_fifo_left_put
                  0x0053c0                  _piezo_fifo_left_items
 .text            0x0053c8        0x4d2 build/default/production/main.o
                  0x00543e                  _pps_init
                  0x005474                  _init_pins
                  0x005508                  _Setup_Timer1
                  0x00551e                  _Setup_Timer4
                  0x00553a                  _startUp
                  0x00562a                  _check_poll
                  0x0056f8                  _check_boost_wdelay
                  0x005728                  _main
                  0x005798                  _toggleLed
                  0x0057c8                  _change_global_intensity
 .text            0x00589a        0x340 build/default/production/eeprom.o
                  0x0058e6                  _eeprom_init
                  0x005908                  _eeprom_deinit
                  0x00591c                  _eeprom_write_byte
                  0x00599e                  _eeprom_read_byte
                  0x005a3a                  _eeprom_read_block
                  0x005afc                  _eeprom_write_block
 .text            0x005bda        0x2be build/default/production/i2c.o
                  0x005c52                  _i2c_init
                  0x005cce                  _i2c_deinit
                  0x005d06                  _i2c_start
                  0x005d36                  _i2c_restart
                  0x005d66                  _i2c_accept
                  0x005d96                  _i2c_stop
                  0x005dc6                  _i2c_write_byte
                  0x005e14                  _i2c_read_byte
 .text            0x005e98        0x238 build/default/production/relay_pwm_manager.o
                  0x005f22                  _relay_pwm_init
                  0x006082                  _relay_pwm_fire
                  0x0060be                  _relay_pwm_stop

.dinit            0x0060d0        0x222
 .dinit           0x0060d0        0x222 data_init

.text             0x0062f2        0x7ba
 .text            0x0062f2        0x1c2 build/default/production/pod_manager_async.o
                  0x006368                  _pod_manager_async_init
                  0x0063b8                  _pod_manager_async_poll
                  0x0063f2                  build/default/production/pod_manager_async.o:_pod_read_done
                  0x006476                  _pod_manager_fire
 .text            0x0064b4        0x18e build/default/production/PWM.o
                  0x0064b4                  _calc_pwm_multi
                  0x006508                  _PWM_FREQ
                  0x00655c                  _PWM_Setup
                  0x00659c                  _PWM_PIEZO_R
                  0x0065ea                  _PWM_PIEZO_L
 .text            0x006642        0x166 build/default/production/i2c_async.o
                  0x006690                  _i2c_async_init
                  0x0066d0                  _i2c_async_submit
 .text            0x0067a8        0x130 build/default/production/adc.o
                  0x0067a8                  _setup_adc
                  0x0067d6                  _calc_adc
 .text            0x0068d8         0xfa build/default/production/pod.o
                  0x0068f0                  _pod_init
                  0x00691c                  _pod_deinit
                  0x006932                  _pod_detect
                  0x006982                  _pod_load_metadata
 .text            0x0069d2         0xda build/default/production/eeprom_async.o
                  0x0069d2                  _eeproma_read_block_async
                  0x006a40                  build/default/production/eeprom_async.o:_eeproma_read_cb
                  0x006a8a                  _eeproma_init

.init.delay32     0x006aac         0x1c
 .init.delay32    0x006aac         0x1c /Applications/microchip/xc16/v2.10/bin/bin/../../lib/libc99-pic30-elf.a(delay32da.Meo)
                  0x006aac                  ___delay32
